(igame
Game
p1
(dp2
S'numMoves'
p3
I0
sS'rules'
p4
(icapture
CaptureRules
p5
(dp6
bsS'length'
p7
I3000
sS'state'
p8
(icapture
GameState
p9
(dp10
S'teams'
p11
(lp12
I01
aI00
aI01
aI00
asS'agentDistances'
p13
(lp14
sS'data'
p15
(igame
GameStateData
p16
(dp17
S'_foodEaten'
p18
(I4
I5
tp19
sS'layout'
p20
(ilayout
Layout
p21
(dp22
S'capsules'
p23
(lp24
sS'numGhosts'
p25
I4
sS'food'
p26
(igame
Grid
p27
(dp28
S'CELLS_PER_INT'
p29
I30
sS'width'
p30
I22
sg15
(lp31
(lp32
I00
aI00
aI00
aI00
aI00
aI00
aI00
aI00
aI00
aI00
aI00
aI00
aI00
aI00
aI00
aI00
aI00
aI00
aI00
aI00
aI00
aI00
aI00
aI00
aI00
aI00
aI00
aa(lp33
I00
aI00
aI00
aI00
aI00
aI00
aI00
aI00
aI00
aI00
aI00
aI00
aI01
aI01
aI01
aI01
aI01
aI01
aI01
aI00
aI00
aI00
aI00
aI01
aI01
aI01
aI00
aa(lp34
I00
aI00
aI00
aI00
aI00
aI00
aI00
aI00
aI00
aI00
aI00
aI00
aI01
aI01
aI01
aI01
aI00
aI01
aI00
aI00
aI00
aI00
aI00
aI01
aI00
aI00
aI00
aa(lp35
I00
aI00
aI00
aI00
aI00
aI00
aI01
aI01
aI01
aI01
aI01
aI01
aI01
aI01
aI01
aI01
aI00
aI01
aI01
aI00
aI00
aI00
aI00
aI01
aI00
aI00
aI00
aa(lp36
I00
aI00
aI00
aI00
aI00
aI01
aI00
aI00
aI00
aI00
aI00
aI00
aI00
aI01
aI00
aI00
aI00
aI00
aI01
aI00
aI00
aI00
aI00
aI01
aI00
aI00
aI00
aa(lp37
I00
aI00
aI00
aI00
aI00
aI00
aI01
aI00
aI00
aI00
aI00
aI00
aI00
aI01
aI00
aI01
aI01
aI01
aI01
aI00
aI00
aI00
aI00
aI01
aI00
aI00
aI00
aa(lp38
I00
aI00
aI00
aI00
aI00
aI01
aI00
aI00
aI00
aI00
aI00
aI00
aI00
aI01
aI00
aI01
aI00
aI00
aI00
aI00
aI00
aI00
aI00
aI00
aI00
aI00
aI00
aa(lp39
I00
aI00
aI00
aI00
aI00
aI00
aI01
aI01
aI01
aI01
aI01
aI01
aI01
aI01
aI01
aI01
aI00
aI00
aI00
aI00
aI00
aI00
aI00
aI00
aI00
aI00
aI00
aa(lp40
I00
aI00
aI00
aI00
aI00
aI01
aI00
aI00
aI01
aI00
aI00
aI00
aI00
aI00
aI00
aI00
aI00
aI00
aI00
aI00
aI00
aI00
aI00
aI01
aI00
aI00
aI00
aa(lp41
I00
aI00
aI00
aI00
aI00
aI00
aI00
aI00
aI01
aI01
aI01
aI01
aI01
aI00
aI01
aI01
aI01
aI01
aI01
aI00
aI00
aI00
aI00
aI01
aI00
aI00
aI00
aa(lp42
I00
aI00
aI00
aI00
aI00
aI00
aI00
aI00
aI00
aI00
aI00
aI00
aI00
aI00
aI00
aI00
aI00
aI00
aI00
aI00
aI00
aI00
aI00
aI00
aI00
aI00
aI00
aa(lp43
I00
aI00
aI00
aI00
aI00
aI00
aI00
aI00
aI00
aI00
aI00
aI00
aI00
aI00
aI00
aI00
aI00
aI00
aI00
aI00
aI00
aI00
aI00
aI00
aI00
aI00
aI00
aa(lp44
I00
aI00
aI00
aI01
aI00
aI00
aI00
aI00
aI01
aI01
aI01
aI01
aI01
aI00
aI01
aI01
aI01
aI01
aI01
aI00
aI00
aI00
aI00
aI00
aI00
aI00
aI00
aa(lp45
I00
aI00
aI00
aI01
aI00
aI00
aI00
aI00
aI00
aI00
aI00
aI00
aI00
aI00
aI00
aI00
aI00
aI00
aI01
aI00
aI00
aI01
aI00
aI00
aI00
aI00
aI00
aa(lp46
I00
aI00
aI00
aI00
aI00
aI00
aI00
aI00
aI00
aI00
aI00
aI01
aI01
aI01
aI01
aI01
aI01
aI01
aI01
aI01
aI01
aI00
aI00
aI00
aI00
aI00
aI00
aa(lp47
I00
aI00
aI00
aI00
aI00
aI00
aI00
aI00
aI00
aI00
aI00
aI01
aI00
aI01
aI00
aI00
aI00
aI00
aI00
aI00
aI00
aI01
aI00
aI00
aI00
aI00
aI00
aa(lp48
I00
aI00
aI00
aI01
aI00
aI00
aI00
aI00
aI01
aI01
aI01
aI01
aI00
aI01
aI00
aI00
aI00
aI00
aI00
aI00
aI01
aI00
aI00
aI00
aI00
aI00
aI00
aa(lp49
I00
aI00
aI00
aI01
aI00
aI00
aI00
aI00
aI01
aI00
aI00
aI00
aI00
aI01
aI00
aI00
aI00
aI00
aI00
aI00
aI00
aI01
aI00
aI00
aI00
aI00
aI00
aa(lp50
I00
aI00
aI00
aI01
aI00
aI00
aI00
aI00
aI01
aI01
aI00
aI01
aI01
aI01
aI01
aI01
aI01
aI01
aI01
aI01
aI01
aI00
aI00
aI00
aI00
aI00
aI00
aa(lp51
I00
aI00
aI00
aI01
aI00
aI00
aI00
aI00
aI00
aI01
aI00
aI01
aI01
aI01
aI01
aI00
aI00
aI00
aI00
aI00
aI00
aI00
aI00
aI00
aI00
aI00
aI00
aa(lp52
I00
aI01
aI01
aI01
aI00
aI00
aI00
aI00
aI01
aI01
aI01
aI01
aI01
aI01
aI01
aI00
aI00
aI00
aI00
aI00
aI00
aI00
aI00
aI00
aI00
aI00
aI00
aa(lp53
I00
aI00
aI00
aI00
aI00
aI00
aI00
aI00
aI00
aI00
aI00
aI00
aI00
aI00
aI00
aI00
aI00
aI00
aI00
aI00
aI00
aI00
aI00
aI00
aI00
aI00
aI00
aasS'height'
p54
I27
sbsS'agentPositions'
p55
(lp56
(I00
(I1
I20
tp57
tp58
a(I00
(I20
I6
tp59
tp60
a(I00
(I1
I1
tp61
tp62
a(I00
(I20
I25
tp63
tp64
asg54
I27
sg30
I22
sS'walls'
p65
(igame
Grid
p66
(dp67
g29
I30
sg30
I22
sg15
(lp68
(lp69
I01
aI01
aI01
aI01
aI01
aI01
aI01
aI01
aI01
aI01
aI01
aI01
aI01
aI01
aI01
aI01
aI01
aI01
aI01
aI01
aI01
aI01
aI01
aI01
aI01
aI01
aI01
aa(lp70
I01
aI00
aI00
aI00
aI00
aI00
aI00
aI00
aI00
aI00
aI00
aI01
aI00
aI00
aI00
aI00
aI00
aI00
aI00
aI00
aI00
aI00
aI00
aI00
aI00
aI00
aI01
aa(lp71
I01
aI00
aI01
aI01
aI01
aI01
aI01
aI01
aI00
aI01
aI01
aI01
aI00
aI00
aI00
aI00
aI01
aI00
aI01
aI01
aI00
aI01
aI01
aI00
aI01
aI00
aI01
aa(lp72
I01
aI00
aI01
aI00
aI00
aI00
aI00
aI00
aI00
aI00
aI00
aI00
aI00
aI00
aI00
aI00
aI01
aI00
aI00
aI01
aI00
aI00
aI01
aI00
aI01
aI00
aI01
aa(lp73
I01
aI00
aI01
aI00
aI01
aI00
aI00
aI01
aI01
aI01
aI01
aI01
aI01
aI00
aI01
aI01
aI01
aI01
aI00
aI01
aI01
aI00
aI01
aI00
aI01
aI00
aI01
aa(lp74
I01
aI00
aI01
aI00
aI01
aI00
aI00
aI00
aI00
aI00
aI00
aI00
aI01
aI00
aI01
aI00
aI00
aI00
aI00
aI00
aI00
aI00
aI01
aI00
aI00
aI00
aI01
aa(lp75
I01
aI00
aI01
aI00
aI01
aI00
aI00
aI01
aI01
aI01
aI01
aI01
aI01
aI00
aI01
aI00
aI01
aI01
aI01
aI01
aI01
aI00
aI01
aI01
aI01
aI00
aI01
aa(lp76
I01
aI00
aI01
aI00
aI00
aI00
aI00
aI00
aI00
aI00
aI00
aI00
aI00
aI00
aI00
aI00
aI00
aI00
aI00
aI00
aI00
aI00
aI01
aI01
aI01
aI00
aI01
aa(lp77
I01
aI00
aI01
aI00
aI01
aI00
aI01
aI01
aI00
aI01
aI01
aI01
aI01
aI00
aI01
aI01
aI01
aI01
aI01
aI01
aI01
aI00
aI01
aI00
aI01
aI00
aI01
aa(lp78
I01
aI00
aI01
aI00
aI01
aI00
aI01
aI01
aI00
aI00
aI00
aI00
aI00
aI00
aI00
aI00
aI00
aI00
aI00
aI01
aI00
aI00
aI01
aI00
aI01
aI00
aI01
aa(lp79
I01
aI00
aI01
aI00
aI01
aI00
aI00
aI01
aI00
aI01
aI00
aI00
aI01
aI01
aI01
aI00
aI01
aI01
aI00
aI01
aI00
aI01
aI01
aI00
aI01
aI00
aI01
aa(lp80
I01
aI00
aI01
aI00
aI01
aI01
aI00
aI01
aI00
aI01
aI01
aI00
aI01
aI01
aI01
aI00
aI00
aI01
aI00
aI01
aI00
aI00
aI01
aI00
aI01
aI00
aI01
aa(lp81
I01
aI00
aI01
aI00
aI01
aI00
aI00
aI01
aI00
aI00
aI00
aI00
aI00
aI00
aI00
aI00
aI00
aI00
aI00
aI01
aI01
aI00
aI01
aI00
aI01
aI00
aI01
aa(lp82
I01
aI00
aI01
aI00
aI01
aI00
aI01
aI01
aI01
aI01
aI01
aI01
aI01
aI00
aI01
aI01
aI01
aI01
aI00
aI01
aI01
aI00
aI01
aI00
aI01
aI00
aI01
aa(lp83
I01
aI00
aI01
aI01
aI01
aI00
aI00
aI00
aI00
aI00
aI00
aI00
aI00
aI00
aI00
aI00
aI00
aI00
aI00
aI00
aI00
aI00
aI00
aI00
aI01
aI00
aI01
aa(lp84
I01
aI00
aI01
aI01
aI01
aI00
aI01
aI01
aI01
aI01
aI01
aI00
aI01
aI00
aI01
aI01
aI01
aI01
aI01
aI01
aI00
aI00
aI01
aI00
aI01
aI00
aI01
aa(lp85
I01
aI00
aI00
aI00
aI01
aI00
aI00
aI00
aI00
aI00
aI00
aI00
aI01
aI00
aI01
aI00
aI00
aI00
aI00
aI00
aI00
aI00
aI01
aI00
aI01
aI00
aI01
aa(lp86
I01
aI00
aI01
aI00
aI01
aI00
aI01
aI01
aI00
aI01
aI01
aI01
aI01
aI00
aI01
aI01
aI01
aI01
aI01
aI01
aI00
aI00
aI01
aI00
aI01
aI00
aI01
aa(lp87
I01
aI00
aI01
aI00
aI01
aI00
aI00
aI01
aI00
aI00
aI01
aI00
aI00
aI00
aI00
aI00
aI00
aI00
aI00
aI00
aI00
aI00
aI00
aI00
aI01
aI00
aI01
aa(lp88
I01
aI00
aI01
aI00
aI01
aI01
aI00
aI01
aI01
aI00
aI01
aI00
aI00
aI00
aI00
aI01
aI01
aI01
aI00
aI01
aI01
aI01
aI01
aI01
aI01
aI00
aI01
aa(lp89
I01
aI00
aI00
aI00
aI00
aI00
aI00
aI00
aI00
aI00
aI00
aI00
aI00
aI00
aI00
aI01
aI00
aI00
aI00
aI00
aI00
aI00
aI00
aI00
aI00
aI00
aI01
aa(lp90
I01
aI01
aI01
aI01
aI01
aI01
aI01
aI01
aI01
aI01
aI01
aI01
aI01
aI01
aI01
aI01
aI01
aI01
aI01
aI01
aI01
aI01
aI01
aI01
aI01
aI01
aI01
aasg54
I27
sbsS'layoutText'
p91
(lp92
S'%%%%%%%%%%%%%%%%%%%%%%'
p93
aS'%.                  4%'
p94
aS'%.%%% %%%%%%%%%%%%%% %'
p95
aS'%.....%%..         % %'
p96
aS'% %%%%%%%%%%%% %%% % %'
p97
aS'% %       %  . . . % %'
p98
aS'%1  % % %   %%. . .% %'
p99
aS'% %%% % %%%%%%.% %.% %'
p100
aS'%.%...% %.  ...% %.  %'
p101
aS'%...%.% %.%%.%.% %.% %'
p102
aS'%.%%%.% %.% .%.% %.% %'
p103
aS'%...%...%.  .%.% %.%%%'
p104
aS'%...%%%.%.%%.%.%%%...%'
p105
aS'%.......  %%  .......%'
p106
aS'%...%%%.%.%%.%.%%%...%'
p107
aS'%%%.% %.%.  .%...%...%'
p108
aS'% %.% %.%. %.% %.%%%.%'
p109
aS'% %.% %.%.%%.% %.%...%'
p110
aS'%  .% %...  .% %...%.%'
p111
aS'% %.% %.%%%%%% % %%% %'
p112
aS'% %. . .%%   % % %  2%'
p113
aS'% % . . .  %       % %'
p114
aS'% % %%% %%%%%%%%%%%% %'
p115
aS'% %         ..%%.....%'
p116
aS'% %%%%%%%%%%%%%% %%%.%'
p117
aS'%3                  .%'
p118
aS'%%%%%%%%%%%%%%%%%%%%%%'
p119
asbsg26
(igame
Grid
p120
(dp121
g29
I30
sg30
I22
sg15
(lp122
(lp123
I00
aI00
aI00
aI00
aI00
aI00
aI00
aI00
aI00
aI00
aI00
aI00
aI00
aI00
aI00
aI00
aI00
aI00
aI00
aI00
aI00
aI00
aI00
aI00
aI00
aI00
aI00
aa(lp124
I00
aI00
aI00
aI00
aI00
aI00
aI00
aI00
aI00
aI00
aI00
aI00
aI00
aI00
aI00
aI00
aI00
aI00
aI00
aI00
aI00
aI00
aI00
aI00
aI00
aI00
aI00
aa(lp125
I00
aI00
aI00
aI00
aI00
aI00
aI00
aI00
aI00
aI00
aI00
aI00
aI00
aI00
aI00
aI00
aI00
aI00
aI00
aI00
aI00
aI00
aI00
aI00
aI00
aI00
aI00
aa(lp126
I00
aI00
aI00
aI00
aI00
aI00
aI00
aI00
aI00
aI00
aI00
aI00
aI00
aI00
aI00
aI00
aI00
aI00
aI00
aI00
aI00
aI00
aI00
aI00
aI00
aI00
aI00
aa(lp127
I00
aI00
aI00
aI00
aI00
aI00
aI00
aI00
aI00
aI00
aI00
aI00
aI00
aI00
aI00
aI00
aI00
aI00
aI00
aI00
aI00
aI00
aI00
aI00
aI00
aI00
aI00
aa(lp128
I00
aI00
aI00
aI00
aI00
aI00
aI00
aI00
aI00
aI00
aI00
aI00
aI00
aI00
aI00
aI00
aI00
aI00
aI00
aI00
aI00
aI00
aI00
aI00
aI00
aI00
aI00
aa(lp129
I00
aI00
aI00
aI00
aI00
aI00
aI00
aI00
aI00
aI00
aI00
aI00
aI00
aI00
aI00
aI00
aI00
aI00
aI00
aI00
aI00
aI00
aI00
aI00
aI00
aI00
aI00
aa(lp130
I00
aI00
aI00
aI00
aI00
aI00
aI00
aI00
aI00
aI00
aI00
aI00
aI00
aI00
aI00
aI00
aI00
aI00
aI00
aI00
aI00
aI00
aI00
aI00
aI00
aI00
aI00
aa(lp131
I00
aI00
aI00
aI00
aI00
aI00
aI00
aI00
aI00
aI00
aI00
aI00
aI00
aI00
aI00
aI00
aI00
aI00
aI00
aI00
aI00
aI00
aI00
aI00
aI00
aI00
aI00
aa(lp132
I00
aI00
aI00
aI00
aI00
aI00
aI00
aI00
aI00
aI00
aI00
aI00
aI00
aI00
aI00
aI00
aI00
aI00
aI00
aI00
aI00
aI00
aI00
aI00
aI00
aI00
aI00
aa(lp133
I00
aI00
aI00
aI00
aI00
aI00
aI00
aI00
aI00
aI00
aI00
aI00
aI00
aI00
aI00
aI00
aI00
aI00
aI00
aI00
aI00
aI00
aI00
aI00
aI00
aI00
aI00
aa(lp134
I00
aI00
aI00
aI00
aI00
aI00
aI00
aI00
aI00
aI00
aI00
aI00
aI00
aI00
aI00
aI00
aI00
aI00
aI00
aI00
aI00
aI00
aI00
aI00
aI00
aI00
aI00
aa(lp135
I00
aI00
aI00
aI00
aI00
aI00
aI00
aI00
aI00
aI00
aI00
aI00
aI00
aI00
aI00
aI00
aI00
aI00
aI00
aI00
aI00
aI00
aI00
aI00
aI00
aI00
aI00
aa(lp136
I00
aI00
aI00
aI00
aI00
aI00
aI00
aI00
aI00
aI00
aI00
aI00
aI00
aI00
aI00
aI00
aI00
aI00
aI00
aI00
aI00
aI00
aI00
aI00
aI00
aI00
aI00
aa(lp137
I00
aI00
aI00
aI00
aI00
aI00
aI00
aI00
aI00
aI00
aI00
aI00
aI00
aI00
aI00
aI00
aI00
aI00
aI00
aI00
aI00
aI00
aI00
aI00
aI00
aI00
aI00
aa(lp138
I00
aI00
aI00
aI00
aI00
aI00
aI00
aI00
aI00
aI00
aI00
aI00
aI00
aI00
aI00
aI00
aI00
aI00
aI00
aI00
aI00
aI00
aI00
aI00
aI00
aI00
aI00
aa(lp139
I00
aI00
aI00
aI00
aI00
aI00
aI00
aI00
aI01
aI01
aI01
aI01
aI00
aI00
aI00
aI00
aI00
aI00
aI00
aI00
aI00
aI00
aI00
aI00
aI00
aI00
aI00
aa(lp140
I00
aI00
aI00
aI00
aI00
aI00
aI00
aI00
aI00
aI00
aI00
aI00
aI00
aI00
aI00
aI00
aI00
aI00
aI00
aI00
aI00
aI00
aI00
aI00
aI00
aI00
aI00
aa(lp141
I00
aI00
aI00
aI00
aI00
aI00
aI00
aI00
aI00
aI00
aI00
aI00
aI01
aI01
aI00
aI00
aI00
aI00
aI00
aI00
aI00
aI00
aI00
aI00
aI00
aI00
aI00
aa(lp142
I00
aI00
aI00
aI00
aI00
aI00
aI00
aI00
aI00
aI00
aI00
aI00
aI01
aI01
aI00
aI00
aI00
aI00
aI00
aI00
aI00
aI00
aI00
aI00
aI00
aI00
aI00
aa(lp143
I00
aI00
aI00
aI00
aI00
aI00
aI00
aI00
aI00
aI00
aI00
aI00
aI00
aI00
aI00
aI00
aI00
aI00
aI00
aI00
aI00
aI00
aI00
aI00
aI00
aI00
aI00
aa(lp144
I00
aI00
aI00
aI00
aI00
aI00
aI00
aI00
aI00
aI00
aI00
aI00
aI00
aI00
aI00
aI00
aI00
aI00
aI00
aI00
aI00
aI00
aI00
aI00
aI00
aI00
aI00
aasg54
I27
sbsS'scoreChange'
p145
I-1
sS'agentStates'
p146
(lp147
(igame
AgentState
p148
(dp149
S'start'
p150
(igame
Configuration
p151
(dp152
S'direction'
p153
S'Stop'
p154
sS'pos'
p155
g57
sbsS'configuration'
p156
(igame
Configuration
p157
(dp158
g153
S'East'
p159
sg155
(F17.5
F13
tp160
sbsS'isPacman'
p161
I01
sS'scaredTimer'
p162
I0
sba(igame
AgentState
p163
(dp164
g150
(igame
Configuration
p165
(dp166
g153
g154
sg155
g59
sbsg156
(igame
Configuration
p167
(dp168
g153
S'North'
p169
sg155
(F14
F9
tp170
sbsg161
I00
sg162
I0
sba(igame
AgentState
p171
(dp172
g150
(igame
Configuration
p173
(dp174
g153
g154
sg155
g61
sbsg156
(igame
Configuration
p175
(dp176
g153
g159
sg155
(F5
F6
tp177
sbsg161
I00
sg162
I0
sba(igame
AgentState
p178
(dp179
g150
(igame
Configuration
p180
(dp181
g153
g154
sg155
g63
sbsg156
(igame
Configuration
p182
(dp183
g153
S'West'
p184
sg155
(F4
F5
tp185
sbsg161
I01
sg162
I0
sbasS'_win'
p186
I01
sS'_eaten'
p187
(lp188
I00
aI00
aI00
aI00
asS'score'
p189
I-8
sS'_agentMoved'
p190
I3
sS'_lose'
p191
I00
sg23
(lp192
sS'_capsuleEaten'
p193
NsbsS'redTeam'
p194
(lp195
I0
aI2
asS'blueTeam'
p196
(lp197
I1
aI3
asbsS'agents'
p198
(lp199
I0
aI1
aI2
aI3
asS'moveHistory'
p200
(lp201
(I0
S'East'
tp202
a(I1
S'North'
tp203
a(I2
S'East'
tp204
a(I3
S'South'
tp205
a(I0
S'East'
tp206
a(I1
S'North'
tp207
a(I2
S'East'
tp208
a(I3
S'South'
tp209
a(I0
S'North'
tp210
a(I1
S'North'
tp211
a(I2
S'East'
tp212
a(I3
S'South'
tp213
a(I0
S'East'
tp214
a(I1
S'West'
tp215
a(I2
S'East'
tp216
a(I3
S'South'
tp217
a(I0
S'East'
tp218
a(I1
S'West'
tp219
a(I2
S'East'
tp220
a(I3
S'South'
tp221
a(I0
S'East'
tp222
a(I1
S'South'
tp223
a(I2
S'East'
tp224
a(I3
S'South'
tp225
a(I0
S'East'
tp226
a(I1
S'West'
tp227
a(I2
S'East'
tp228
a(I3
S'South'
tp229
a(I0
S'East'
tp230
a(I1
S'West'
tp231
a(I2
S'East'
tp232
a(I3
S'West'
tp233
a(I0
S'East'
tp234
a(I1
S'North'
tp235
a(I2
S'East'
tp236
a(I3
S'West'
tp237
a(I0
S'South'
tp238
a(I1
S'North'
tp239
a(I2
S'East'
tp240
a(I3
S'North'
tp241
a(I0
S'East'
tp242
a(I1
S'North'
tp243
a(I2
S'East'
tp244
a(I3
S'North'
tp245
a(I0
S'East'
tp246
a(I1
S'West'
tp247
a(I2
S'East'
tp248
a(I3
S'North'
tp249
a(I0
S'North'
tp250
a(I1
S'West'
tp251
a(I2
S'East'
tp252
a(I3
S'North'
tp253
a(I0
S'North'
tp254
a(I1
S'North'
tp255
a(I2
S'East'
tp256
a(I3
S'North'
tp257
a(I0
S'East'
tp258
a(I1
S'North'
tp259
a(I2
S'East'
tp260
a(I3
S'West'
tp261
a(I0
S'East'
tp262
a(I1
S'North'
tp263
a(I2
S'East'
tp264
a(I3
S'West'
tp265
a(I0
S'East'
tp266
a(I1
S'North'
tp267
a(I2
S'East'
tp268
a(I3
S'West'
tp269
a(I0
S'East'
tp270
a(I1
S'North'
tp271
a(I2
S'East'
tp272
a(I3
S'West'
tp273
a(I0
S'East'
tp274
a(I1
S'North'
tp275
a(I2
S'East'
tp276
a(I3
S'South'
tp277
a(I0
S'East'
tp278
a(I1
S'North'
tp279
a(I2
S'East'
tp280
a(I3
S'South'
tp281
a(I0
S'West'
tp282
a(I1
S'North'
tp283
a(I2
S'North'
tp284
a(I3
S'East'
tp285
a(I0
S'East'
tp286
a(I1
S'North'
tp287
a(I2
S'North'
tp288
a(I3
S'East'
tp289
a(I0
S'East'
tp290
a(I1
S'East'
tp291
a(I2
S'North'
tp292
a(I3
S'East'
tp293
a(I0
S'North'
tp294
a(I1
S'East'
tp295
a(I2
S'North'
tp296
a(I3
S'South'
tp297
a(I0
S'East'
tp298
a(I1
S'East'
tp299
a(I2
S'East'
tp300
a(I3
S'West'
tp301
a(I0
S'East'
tp302
a(I1
S'East'
tp303
a(I2
S'East'
tp304
a(I3
S'North'
tp305
a(I0
S'East'
tp306
a(I1
S'South'
tp307
a(I2
S'East'
tp308
a(I3
S'West'
tp309
a(I0
S'East'
tp310
a(I1
S'South'
tp311
a(I2
S'East'
tp312
a(I3
S'West'
tp313
a(I0
S'East'
tp314
a(I1
S'South'
tp315
a(I2
S'East'
tp316
a(I3
S'North'
tp317
a(I0
S'East'
tp318
a(I1
S'South'
tp319
a(I2
S'East'
tp320
a(I3
S'North'
tp321
a(I0
S'South'
tp322
a(I1
S'South'
tp323
a(I2
S'East'
tp324
a(I3
S'West'
tp325
a(I0
S'East'
tp326
a(I1
S'South'
tp327
a(I2
S'East'
tp328
a(I3
S'West'
tp329
a(I0
S'East'
tp330
a(I1
S'East'
tp331
a(I2
S'South'
tp332
a(I3
S'West'
tp333
a(I0
S'North'
tp334
a(I1
S'East'
tp335
a(I2
S'South'
tp336
a(I3
S'West'
tp337
a(I0
S'North'
tp338
a(I1
S'South'
tp339
a(I2
S'South'
tp340
a(I3
S'West'
tp341
a(I0
S'East'
tp342
a(I1
S'West'
tp343
a(I2
S'South'
tp344
a(I3
S'West'
tp345
a(I0
S'East'
tp346
a(I1
S'West'
tp347
a(I2
S'North'
tp348
a(I3
S'West'
tp349
a(I0
S'East'
tp350
a(I1
S'South'
tp351
a(I2
S'North'
tp352
a(I3
S'West'
tp353
a(I0
S'East'
tp354
a(I1
S'East'
tp355
a(I2
S'North'
tp356
a(I3
S'East'
tp357
a(I0
S'East'
tp358
a(I1
S'South'
tp359
a(I2
S'North'
tp360
a(I3
S'East'
tp361
a(I0
S'East'
tp362
a(I1
S'East'
tp363
a(I2
S'North'
tp364
a(I3
S'East'
tp365
a(I0
S'South'
tp366
a(I1
S'South'
tp367
a(I2
S'North'
tp368
a(I3
S'East'
tp369
a(I0
S'South'
tp370
a(I1
S'South'
tp371
a(I2
S'North'
tp372
a(I3
S'East'
tp373
a(I0
S'South'
tp374
a(I1
S'South'
tp375
a(I2
S'North'
tp376
a(I3
S'East'
tp377
a(I0
S'South'
tp378
a(I1
S'South'
tp379
a(I2
S'South'
tp380
a(I3
S'East'
tp381
a(I0
S'South'
tp382
a(I1
S'South'
tp383
a(I2
S'South'
tp384
a(I3
S'East'
tp385
a(I0
S'South'
tp386
a(I1
S'South'
tp387
a(I2
S'North'
tp388
a(I3
S'East'
tp389
a(I0
S'West'
tp390
a(I1
S'South'
tp391
a(I2
S'North'
tp392
a(I3
S'South'
tp393
a(I0
S'West'
tp394
a(I1
S'South'
tp395
a(I2
S'North'
tp396
a(I3
S'South'
tp397
a(I0
S'West'
tp398
a(I1
S'West'
tp399
a(I2
S'North'
tp400
a(I3
S'South'
tp401
a(I0
S'West'
tp402
a(I1
S'West'
tp403
a(I2
S'North'
tp404
a(I3
S'South'
tp405
a(I0
S'South'
tp406
a(I1
S'West'
tp407
a(I2
S'North'
tp408
a(I3
S'South'
tp409
a(I0
S'South'
tp410
a(I1
S'West'
tp411
a(I2
S'North'
tp412
a(I3
S'West'
tp413
a(I0
S'South'
tp414
a(I1
S'South'
tp415
a(I2
S'North'
tp416
a(I3
S'West'
tp417
a(I0
S'South'
tp418
a(I1
S'South'
tp419
a(I2
S'East'
tp420
a(I3
S'South'
tp421
a(I0
S'South'
tp422
a(I1
S'East'
tp423
a(I2
S'East'
tp424
a(I3
S'South'
tp425
a(I0
S'South'
tp426
a(I1
S'East'
tp427
a(I2
S'South'
tp428
a(I3
S'South'
tp429
a(I0
S'West'
tp430
a(I1
S'East'
tp431
a(I2
S'South'
tp432
a(I3
S'West'
tp433
a(I0
S'East'
tp434
a(I1
S'East'
tp435
a(I2
S'East'
tp436
a(I3
S'West'
tp437
a(I0
S'East'
tp438
a(I1
S'North'
tp439
a(I2
S'East'
tp440
a(I3
S'West'
tp441
a(I0
S'North'
tp442
a(I1
S'North'
tp443
a(I2
S'East'
tp444
a(I3
S'West'
tp445
a(I0
S'East'
tp446
a(I1
S'North'
tp447
a(I2
S'East'
tp448
a(I3
S'South'
tp449
a(I0
S'East'
tp450
a(I1
S'North'
tp451
a(I2
S'North'
tp452
a(I3
S'South'
tp453
a(I0
S'East'
tp454
a(I1
S'North'
tp455
a(I2
S'North'
tp456
a(I3
S'South'
tp457
a(I0
S'East'
tp458
a(I1
S'North'
tp459
a(I2
S'East'
tp460
a(I3
S'South'
tp461
a(I0
S'East'
tp462
a(I1
S'North'
tp463
a(I2
S'East'
tp464
a(I3
S'South'
tp465
a(I0
S'East'
tp466
a(I1
S'North'
tp467
a(I2
S'East'
tp468
a(I3
S'South'
tp469
a(I0
S'South'
tp470
a(I1
S'North'
tp471
a(I2
S'East'
tp472
a(I3
S'South'
tp473
a(I0
S'East'
tp474
a(I1
S'North'
tp475
a(I2
S'East'
tp476
a(I3
S'South'
tp477
a(I0
S'East'
tp478
a(I1
S'West'
tp479
a(I2
S'East'
tp480
a(I3
S'South'
tp481
a(I0
S'West'
tp482
a(I1
S'North'
tp483
a(I2
S'North'
tp484
a(I3
S'South'
tp485
a(I0
S'West'
tp486
a(I1
S'North'
tp487
a(I2
S'North'
tp488
a(I3
S'South'
tp489
a(I0
S'West'
tp490
a(I1
S'West'
tp491
a(I2
S'North'
tp492
a(I3
S'South'
tp493
a(I0
S'North'
tp494
a(I1
S'West'
tp495
a(I2
S'North'
tp496
a(I3
S'South'
tp497
a(I0
S'West'
tp498
a(I1
S'West'
tp499
a(I2
S'North'
tp500
a(I3
S'South'
tp501
a(I0
S'West'
tp502
a(I1
S'West'
tp503
a(I2
S'North'
tp504
a(I3
S'West'
tp505
a(I0
S'South'
tp506
a(I1
S'West'
tp507
a(I2
S'North'
tp508
a(I3
S'West'
tp509
a(I0
S'South'
tp510
a(I1
S'West'
tp511
a(I2
S'North'
tp512
a(I3
S'West'
tp513
a(I0
S'South'
tp514
a(I1
S'West'
tp515
a(I2
S'North'
tp516
a(I3
S'West'
tp517
a(I0
S'South'
tp518
a(I1
S'North'
tp519
a(I2
S'North'
tp520
a(I3
S'South'
tp521
a(I0
S'South'
tp522
a(I1
S'North'
tp523
a(I2
S'North'
tp524
a(I3
S'South'
tp525
a(I0
S'South'
tp526
a(I1
S'West'
tp527
a(I2
S'North'
tp528
a(I3
S'South'
tp529
a(I0
S'South'
tp530
a(I1
S'North'
tp531
a(I2
S'North'
tp532
a(I3
S'South'
tp533
a(I0
S'South'
tp534
a(I1
S'East'
tp535
a(I2
S'North'
tp536
a(I3
S'South'
tp537
a(I0
S'South'
tp538
a(I1
S'South'
tp539
a(I2
S'North'
tp540
a(I3
S'South'
tp541
a(I0
S'South'
tp542
a(I1
S'South'
tp543
a(I2
S'North'
tp544
a(I3
S'West'
tp545
a(I0
S'South'
tp546
a(I1
S'South'
tp547
a(I2
S'East'
tp548
a(I3
S'West'
tp549
a(I0
S'South'
tp550
a(I1
S'South'
tp551
a(I2
S'East'
tp552
a(I3
S'East'
tp553
a(I0
S'South'
tp554
a(I1
S'South'
tp555
a(I2
S'South'
tp556
a(I3
S'East'
tp557
a(I0
S'South'
tp558
a(I1
S'West'
tp559
a(I2
S'South'
tp560
a(I3
S'East'
tp561
a(I0
S'South'
tp562
a(I1
S'West'
tp563
a(I2
S'East'
tp564
a(I3
S'East'
tp565
a(I0
S'South'
tp566
a(I1
S'East'
tp567
a(I2
S'East'
tp568
a(I3
S'West'
tp569
a(I0
S'West'
tp570
a(I1
S'East'
tp571
a(I2
S'East'
tp572
a(I3
S'West'
tp573
a(I0
S'West'
tp574
a(I1
S'East'
tp575
a(I2
S'East'
tp576
a(I3
S'West'
tp577
a(I0
S'West'
tp578
a(I1
S'North'
tp579
a(I2
S'South'
tp580
a(I3
S'West'
tp581
a(I0
S'West'
tp582
a(I1
S'North'
tp583
a(I2
S'South'
tp584
a(I3
S'West'
tp585
a(I0
S'North'
tp586
a(I1
S'North'
tp587
a(I2
S'South'
tp588
a(I3
S'West'
tp589
a(I0
S'East'
tp590
a(I1
S'North'
tp591
a(I2
S'East'
tp592
a(I3
S'West'
tp593
a(I0
S'East'
tp594
a(I1
S'West'
tp595
a(I2
S'East'
tp596
a(I3
S'West'
tp597
a(I0
S'East'
tp598
a(I1
S'North'
tp599
a(I2
S'East'
tp600
a(I3
S'West'
tp601
a(I0
S'East'
tp602
a(I1
S'East'
tp603
a(I2
S'East'
tp604
a(I3
S'West'
tp605
a(I0
S'South'
tp606
a(I1
S'South'
tp607
a(I2
S'East'
tp608
a(I3
S'West'
tp609
a(I0
S'South'
tp610
a(I1
S'South'
tp611
a(I2
S'East'
tp612
a(I3
S'West'
tp613
a(I0
S'South'
tp614
a(I1
S'South'
tp615
a(I2
S'East'
tp616
a(I3
S'West'
tp617
a(I0
S'East'
tp618
a(I1
S'South'
tp619
a(I2
S'East'
tp620
a(I3
S'West'
tp621
a(I0
S'East'
tp622
a(I1
S'South'
tp623
a(I2
S'West'
tp624
a(I3
S'West'
tp625
a(I0
S'East'
tp626
a(I1
S'West'
tp627
a(I2
S'West'
tp628
a(I3
S'West'
tp629
a(I0
S'East'
tp630
a(I1
S'West'
tp631
a(I2
S'West'
tp632
a(I3
S'West'
tp633
a(I0
S'West'
tp634
a(I1
S'East'
tp635
a(I2
S'West'
tp636
a(I3
S'West'
tp637
a(I0
S'West'
tp638
a(I1
S'East'
tp639
a(I2
S'West'
tp640
a(I3
S'West'
tp641
a(I0
S'West'
tp642
a(I1
S'East'
tp643
a(I2
S'West'
tp644
a(I3
S'West'
tp645
a(I0
S'West'
tp646
a(I1
S'South'
tp647
a(I2
S'West'
tp648
a(I3
S'West'
tp649
a(I0
S'West'
tp650
a(I1
S'South'
tp651
a(I2
S'West'
tp652
a(I3
S'West'
tp653
a(I0
S'West'
tp654
a(I1
S'South'
tp655
a(I2
S'West'
tp656
a(I3
S'West'
tp657
a(I0
S'West'
tp658
a(I1
S'West'
tp659
a(I2
S'North'
tp660
a(I3
S'West'
tp661
a(I0
S'West'
tp662
a(I1
S'West'
tp663
a(I2
S'North'
tp664
a(I3
S'West'
tp665
a(I0
S'West'
tp666
a(I1
S'East'
tp667
a(I2
S'East'
tp668
a(I3
S'West'
tp669
a(I0
S'North'
tp670
a(I1
S'East'
tp671
a(I2
S'East'
tp672
a(I3
S'West'
tp673
a(I0
S'North'
tp674
a(I1
S'East'
tp675
a(I2
S'East'
tp676
a(I3
S'West'
tp677
a(I0
S'North'
tp678
a(I1
S'North'
tp679
a(I2
S'North'
tp680
a(I3
S'West'
tp681
a(I0
S'North'
tp682
a(I1
S'North'
tp683
a(I2
S'East'
tp684
a(I3
S'South'
tp685
a(I0
S'North'
tp686
a(I1
S'North'
tp687
a(I2
S'East'
tp688
a(I3
S'South'
tp689
a(I0
S'North'
tp690
a(I1
S'North'
tp691
a(I2
S'East'
tp692
a(I3
S'South'
tp693
a(I0
S'North'
tp694
a(I1
S'North'
tp695
a(I2
S'South'
tp696
a(I3
S'South'
tp697
a(I0
S'North'
tp698
a(I1
S'East'
tp699
a(I2
S'South'
tp700
a(I3
S'East'
tp701
a(I0
S'North'
tp702
a(I1
S'East'
tp703
a(I2
S'East'
tp704
a(I3
S'East'
tp705
a(I0
S'West'
tp706
a(I1
S'South'
tp707
a(I2
S'East'
tp708
a(I3
S'East'
tp709
a(I0
S'West'
tp710
a(I1
S'South'
tp711
a(I2
S'East'
tp712
a(I3
S'East'
tp713
a(I0
S'North'
tp714
a(I1
S'South'
tp715
a(I2
S'East'
tp716
a(I3
S'East'
tp717
a(I0
S'North'
tp718
a(I1
S'South'
tp719
a(I2
S'East'
tp720
a(I3
S'East'
tp721
a(I0
S'North'
tp722
a(I1
S'South'
tp723
a(I2
S'East'
tp724
a(I3
S'East'
tp725
a(I0
S'North'
tp726
a(I1
S'South'
tp727
a(I2
S'East'
tp728
a(I3
S'East'
tp729
a(I0
S'North'
tp730
a(I1
S'South'
tp731
a(I2
S'East'
tp732
a(I3
S'West'
tp733
a(I0
S'North'
tp734
a(I1
S'South'
tp735
a(I2
S'North'
tp736
a(I3
S'West'
tp737
a(I0
S'North'
tp738
a(I1
S'East'
tp739
a(I2
S'North'
tp740
a(I3
S'West'
tp741
a(I0
S'North'
tp742
a(I1
S'East'
tp743
a(I2
S'North'
tp744
a(I3
S'West'
tp745
a(I0
S'North'
tp746
a(I1
S'North'
tp747
a(I2
S'North'
tp748
a(I3
S'West'
tp749
a(I0
S'North'
tp750
a(I1
S'North'
tp751
a(I2
S'Stop'
tp752
a(I3
S'West'
tp753
a(I0
S'North'
tp754
a(I1
S'North'
tp755
a(I2
S'East'
tp756
a(I3
S'Stop'
tp757
a(I0
S'East'
tp758
a(I1
S'North'
tp759
a(I2
S'East'
tp760
a(I3
S'Stop'
tp761
a(I0
S'East'
tp762
a(I1
S'North'
tp763
a(I2
S'East'
tp764
a(I3
S'South'
tp765
a(I0
S'East'
tp766
a(I1
S'North'
tp767
a(I2
S'East'
tp768
a(I3
S'South'
tp769
a(I0
S'East'
tp770
a(I1
S'West'
tp771
a(I2
S'East'
tp772
a(I3
S'South'
tp773
a(I0
S'North'
tp774
a(I1
S'West'
tp775
a(I2
S'East'
tp776
a(I3
S'South'
tp777
a(I0
S'North'
tp778
a(I1
S'North'
tp779
a(I2
S'East'
tp780
a(I3
S'South'
tp781
a(I0
S'East'
tp782
a(I1
S'North'
tp783
a(I2
S'East'
tp784
a(I3
S'South'
tp785
a(I0
S'East'
tp786
a(I1
S'West'
tp787
a(I2
S'East'
tp788
a(I3
S'South'
tp789
a(I0
S'East'
tp790
a(I1
S'West'
tp791
a(I2
S'East'
tp792
a(I3
S'West'
tp793
a(I0
S'East'
tp794
a(I1
S'North'
tp795
a(I2
S'East'
tp796
a(I3
S'West'
tp797
a(I0
S'East'
tp798
a(I1
S'North'
tp799
a(I2
S'East'
tp800
a(I3
S'North'
tp801
a(I0
S'East'
tp802
a(I1
S'West'
tp803
a(I2
S'East'
tp804
a(I3
S'North'
tp805
a(I0
S'East'
tp806
a(I1
S'North'
tp807
a(I2
S'East'
tp808
a(I3
S'West'
tp809
a(I0
S'East'
tp810
a(I1
S'East'
tp811
a(I2
S'East'
tp812
a(I3
S'West'
tp813
a(I0
S'East'
tp814
a(I1
S'South'
tp815
a(I2
S'East'
tp816
a(I3
S'West'
tp817
a(I0
S'East'
tp818
a(I1
S'South'
tp819
a(I2
S'East'
tp820
a(I3
S'West'
tp821
a(I0
S'East'
tp822
a(I1
S'South'
tp823
a(I2
S'East'
tp824
a(I3
S'South'
tp825
a(I0
S'East'
tp826
a(I1
S'East'
tp827
a(I2
S'East'
tp828
a(I3
S'South'
tp829
a(I0
S'East'
tp830
a(I1
S'East'
tp831
a(I2
S'East'
tp832
a(I3
S'West'
tp833
a(I0
S'East'
tp834
a(I1
S'East'
tp835
a(I2
S'East'
tp836
a(I3
S'West'
tp837
a(I0
S'East'
tp838
a(I1
S'East'
tp839
a(I2
S'East'
tp840
a(I3
S'West'
tp841
a(I0
S'East'
tp842
a(I1
S'East'
tp843
a(I2
S'East'
tp844
a(I3
S'West'
tp845
a(I0
S'East'
tp846
a(I1
S'East'
tp847
a(I2
S'East'
tp848
a(I3
S'West'
tp849
a(I0
S'East'
tp850
a(I1
S'East'
tp851
a(I2
S'East'
tp852
a(I3
S'West'
tp853
a(I0
S'East'
tp854
a(I1
S'North'
tp855
a(I2
S'East'
tp856
a(I3
S'South'
tp857
a(I0
S'East'
tp858
a(I1
S'West'
tp859
a(I2
S'East'
tp860
a(I3
S'South'
tp861
a(I0
S'East'
tp862
a(I1
S'South'
tp863
a(I2
S'East'
tp864
a(I3
S'South'
tp865
a(I0
S'East'
tp866
a(I1
S'East'
tp867
a(I2
S'North'
tp868
a(I3
S'South'
tp869
a(I0
S'East'
tp870
a(I1
S'South'
tp871
a(I2
S'North'
tp872
a(I3
S'South'
tp873
a(I0
S'East'
tp874
a(I1
S'West'
tp875
a(I2
S'North'
tp876
a(I3
S'South'
tp877
a(I0
S'South'
tp878
a(I1
S'North'
tp879
a(I2
S'North'
tp880
a(I3
S'South'
tp881
a(I0
S'South'
tp882
a(I1
S'East'
tp883
a(I2
S'North'
tp884
a(I3
S'South'
tp885
a(I0
S'South'
tp886
a(I1
S'North'
tp887
a(I2
S'North'
tp888
a(I3
S'South'
tp889
a(I0
S'South'
tp890
a(I1
S'West'
tp891
a(I2
S'North'
tp892
a(I3
S'South'
tp893
a(I0
S'South'
tp894
a(I1
S'South'
tp895
a(I2
S'North'
tp896
a(I3
S'West'
tp897
a(I0
S'South'
tp898
a(I1
S'South'
tp899
a(I2
S'North'
tp900
a(I3
S'West'
tp901
a(I0
S'South'
tp902
a(I1
S'East'
tp903
a(I2
S'North'
tp904
a(I3
S'West'
tp905
a(I0
S'South'
tp906
a(I1
S'North'
tp907
a(I2
S'North'
tp908
a(I3
S'West'
tp909
a(I0
S'South'
tp910
a(I1
S'West'
tp911
a(I2
S'North'
tp912
a(I3
S'North'
tp913
a(I0
S'South'
tp914
a(I1
S'South'
tp915
a(I2
S'North'
tp916
a(I3
S'North'
tp917
a(I0
S'South'
tp918
a(I1
S'East'
tp919
a(I2
S'North'
tp920
a(I3
S'North'
tp921
a(I0
S'South'
tp922
a(I1
S'East'
tp923
a(I2
S'North'
tp924
a(I3
S'North'
tp925
a(I0
S'South'
tp926
a(I1
S'South'
tp927
a(I2
S'North'
tp928
a(I3
S'West'
tp929
a(I0
S'South'
tp930
a(I1
S'South'
tp931
a(I2
S'West'
tp932
a(I3
S'West'
tp933
a(I0
S'West'
tp934
a(I1
S'South'
tp935
a(I2
S'West'
tp936
a(I3
S'West'
tp937
a(I0
S'West'
tp938
a(I1
S'West'
tp939
a(I2
S'East'
tp940
a(I3
S'West'
tp941
a(I0
S'West'
tp942
a(I1
S'West'
tp943
a(I2
S'North'
tp944
a(I3
S'North'
tp945
a(I0
S'West'
tp946
a(I1
S'South'
tp947
a(I2
S'North'
tp948
a(I3
S'North'
tp949
a(I0
S'South'
tp950
a(I1
S'West'
tp951
a(I2
S'North'
tp952
a(I3
S'North'
tp953
a(I0
S'South'
tp954
a(I1
S'West'
tp955
a(I2
S'North'
tp956
a(I3
S'North'
tp957
a(I0
S'South'
tp958
a(I1
S'North'
tp959
a(I2
S'North'
tp960
a(I3
S'North'
tp961
a(I0
S'South'
tp962
a(I1
S'North'
tp963
a(I2
S'North'
tp964
a(I3
S'North'
tp965
a(I0
S'South'
tp966
a(I1
S'North'
tp967
a(I2
S'North'
tp968
a(I3
S'West'
tp969
a(I0
S'South'
tp970
a(I1
S'West'
tp971
a(I2
S'East'
tp972
a(I3
S'West'
tp973
a(I0
S'South'
tp974
a(I1
S'West'
tp975
a(I2
S'East'
tp976
a(I3
S'West'
tp977
a(I0
S'South'
tp978
a(I1
S'North'
tp979
a(I2
S'North'
tp980
a(I3
S'West'
tp981
a(I0
S'East'
tp982
a(I1
S'North'
tp983
a(I2
S'North'
tp984
a(I3
S'South'
tp985
a(I0
S'East'
tp986
a(I1
S'East'
tp987
a(I2
S'North'
tp988
a(I3
S'South'
tp989
a(I0
S'East'
tp990
a(I1
S'East'
tp991
a(I2
S'North'
tp992
a(I3
S'West'
tp993
a(I0
S'East'
tp994
a(I1
S'East'
tp995
a(I2
S'North'
tp996
a(I3
S'West'
tp997
a(I0
S'South'
tp998
a(I1
S'East'
tp999
a(I2
S'East'
tp1000
a(I3
S'West'
tp1001
a(I0
S'South'
tp1002
a(I1
S'East'
tp1003
a(I2
S'East'
tp1004
a(I3
S'West'
tp1005
a(I0
S'South'
tp1006
a(I1
S'East'
tp1007
a(I2
S'East'
tp1008
a(I3
S'South'
tp1009
a(I0
S'South'
tp1010
a(I1
S'South'
tp1011
a(I2
S'East'
tp1012
a(I3
S'South'
tp1013
a(I0
S'West'
tp1014
a(I1
S'West'
tp1015
a(I2
S'East'
tp1016
a(I3
S'South'
tp1017
a(I0
S'East'
tp1018
a(I1
S'North'
tp1019
a(I2
S'East'
tp1020
a(I3
S'South'
tp1021
a(I0
S'East'
tp1022
a(I1
S'West'
tp1023
a(I2
S'North'
tp1024
a(I3
S'South'
tp1025
a(I0
S'North'
tp1026
a(I1
S'West'
tp1027
a(I2
S'North'
tp1028
a(I3
S'South'
tp1029
a(I0
S'East'
tp1030
a(I1
S'West'
tp1031
a(I2
S'East'
tp1032
a(I3
S'South'
tp1033
a(I0
S'East'
tp1034
a(I1
S'West'
tp1035
a(I2
S'East'
tp1036
a(I3
S'South'
tp1037
a(I0
S'South'
tp1038
a(I1
S'West'
tp1039
a(I2
S'East'
tp1040
a(I3
S'East'
tp1041
a(I0
S'South'
tp1042
a(I1
S'West'
tp1043
a(I2
S'East'
tp1044
a(I3
S'East'
tp1045
a(I0
S'South'
tp1046
a(I1
S'West'
tp1047
a(I2
S'South'
tp1048
a(I3
S'East'
tp1049
a(I0
S'West'
tp1050
a(I1
S'North'
tp1051
a(I2
S'South'
tp1052
a(I3
S'East'
tp1053
a(I0
S'West'
tp1054
a(I1
S'North'
tp1055
a(I2
S'East'
tp1056
a(I3
S'South'
tp1057
a(I0
S'South'
tp1058
a(I1
S'West'
tp1059
a(I2
S'East'
tp1060
a(I3
S'South'
tp1061
a(I0
S'West'
tp1062
a(I1
S'North'
tp1063
a(I2
S'East'
tp1064
a(I3
S'West'
tp1065
a(I0
S'West'
tp1066
a(I1
S'East'
tp1067
a(I2
S'East'
tp1068
a(I3
S'West'
tp1069
a(I0
S'South'
tp1070
a(I1
S'South'
tp1071
a(I2
S'East'
tp1072
a(I3
S'West'
tp1073
a(I0
S'South'
tp1074
a(I1
S'South'
tp1075
a(I2
S'East'
tp1076
a(I3
S'West'
tp1077
a(I0
S'East'
tp1078
a(I1
S'South'
tp1079
a(I2
S'East'
tp1080
a(I3
S'North'
tp1081
a(I0
S'South'
tp1082
a(I1
S'East'
tp1083
a(I2
S'East'
tp1084
a(I3
S'North'
tp1085
a(I0
S'West'
tp1086
a(I1
S'East'
tp1087
a(I2
S'East'
tp1088
a(I3
S'Stop'
tp1089
a(I0
S'South'
tp1090
a(I1
S'East'
tp1091
a(I2
S'East'
tp1092
a(I3
S'North'
tp1093
a(I0
S'East'
tp1094
a(I1
S'East'
tp1095
a(I2
S'East'
tp1096
a(I3
S'West'
tp1097
a(I0
S'East'
tp1098
a(I1
S'East'
tp1099
a(I2
S'East'
tp1100
a(I3
S'West'
tp1101
a(I0
S'East'
tp1102
a(I1
S'East'
tp1103
a(I2
S'East'
tp1104
a(I3
S'West'
tp1105
a(I0
S'East'
tp1106
a(I1
S'South'
tp1107
a(I2
S'East'
tp1108
a(I3
S'West'
tp1109
a(I0
S'East'
tp1110
a(I1
S'East'
tp1111
a(I2
S'East'
tp1112
a(I3
S'West'
tp1113
a(I0
S'East'
tp1114
a(I1
S'South'
tp1115
a(I2
S'East'
tp1116
a(I3
S'West'
tp1117
a(I0
S'East'
tp1118
a(I1
S'East'
tp1119
a(I2
S'East'
tp1120
a(I3
S'West'
tp1121
a(I0
S'East'
tp1122
a(I1
S'South'
tp1123
a(I2
S'East'
tp1124
a(I3
S'West'
tp1125
a(I0
S'North'
tp1126
a(I1
S'South'
tp1127
a(I2
S'East'
tp1128
a(I3
S'West'
tp1129
a(I0
S'North'
tp1130
a(I1
S'South'
tp1131
a(I2
S'East'
tp1132
a(I3
S'West'
tp1133
a(I0
S'East'
tp1134
a(I1
S'South'
tp1135
a(I2
S'East'
tp1136
a(I3
S'West'
tp1137
a(I0
S'East'
tp1138
a(I1
S'South'
tp1139
a(I2
S'East'
tp1140
a(I3
S'West'
tp1141
a(I0
S'West'
tp1142
a(I1
S'South'
tp1143
a(I2
S'East'
tp1144
a(I3
S'West'
tp1145
a(I0
S'West'
tp1146
a(I1
S'South'
tp1147
a(I2
S'East'
tp1148
a(I3
S'West'
tp1149
a(I0
S'West'
tp1150
a(I1
S'South'
tp1151
a(I2
S'East'
tp1152
a(I3
S'East'
tp1153
a(I0
S'South'
tp1154
a(I1
S'South'
tp1155
a(I2
S'East'
tp1156
a(I3
S'East'
tp1157
a(I0
S'South'
tp1158
a(I1
S'South'
tp1159
a(I2
S'West'
tp1160
a(I3
S'East'
tp1161
a(I0
S'West'
tp1162
a(I1
S'West'
tp1163
a(I2
S'West'
tp1164
a(I3
S'East'
tp1165
a(I0
S'West'
tp1166
a(I1
S'West'
tp1167
a(I2
S'East'
tp1168
a(I3
S'West'
tp1169
a(I0
S'West'
tp1170
a(I1
S'West'
tp1171
a(I2
S'East'
tp1172
a(I3
S'West'
tp1173
a(I0
S'West'
tp1174
a(I1
S'West'
tp1175
a(I2
S'East'
tp1176
a(I3
S'West'
tp1177
a(I0
S'West'
tp1178
a(I1
S'North'
tp1179
a(I2
S'East'
tp1180
a(I3
S'West'
tp1181
a(I0
S'West'
tp1182
a(I1
S'North'
tp1183
a(I2
S'East'
tp1184
a(I3
S'West'
tp1185
a(I0
S'West'
tp1186
a(I1
S'East'
tp1187
a(I2
S'East'
tp1188
a(I3
S'West'
tp1189
a(I0
S'West'
tp1190
a(I1
S'East'
tp1191
a(I2
S'East'
tp1192
a(I3
S'West'
tp1193
a(I0
S'North'
tp1194
a(I1
S'East'
tp1195
a(I2
S'East'
tp1196
a(I3
S'West'
tp1197
a(I0
S'North'
tp1198
a(I1
S'East'
tp1199
a(I2
S'East'
tp1200
a(I3
S'West'
tp1201
a(I0
S'North'
tp1202
a(I1
S'North'
tp1203
a(I2
S'East'
tp1204
a(I3
S'West'
tp1205
a(I0
S'North'
tp1206
a(I1
S'North'
tp1207
a(I2
S'East'
tp1208
a(I3
S'West'
tp1209
a(I0
S'North'
tp1210
a(I1
S'North'
tp1211
a(I2
S'East'
tp1212
a(I3
S'West'
tp1213
a(I0
S'North'
tp1214
a(I1
S'North'
tp1215
a(I2
S'East'
tp1216
a(I3
S'West'
tp1217
a(I0
S'North'
tp1218
a(I1
S'North'
tp1219
a(I2
S'East'
tp1220
a(I3
S'West'
tp1221
a(I0
S'North'
tp1222
a(I1
S'North'
tp1223
a(I2
S'East'
tp1224
a(I3
S'West'
tp1225
a(I0
S'North'
tp1226
a(I1
S'North'
tp1227
a(I2
S'East'
tp1228
a(I3
S'West'
tp1229
a(I0
S'North'
tp1230
a(I1
S'North'
tp1231
a(I2
S'East'
tp1232
a(I3
S'West'
tp1233
a(I0
S'North'
tp1234
a(I1
S'West'
tp1235
a(I2
S'East'
tp1236
a(I3
S'West'
tp1237
a(I0
S'North'
tp1238
a(I1
S'North'
tp1239
a(I2
S'East'
tp1240
a(I3
S'South'
tp1241
a(I0
S'East'
tp1242
a(I1
S'East'
tp1243
a(I2
S'East'
tp1244
a(I3
S'South'
tp1245
a(I0
S'East'
tp1246
a(I1
S'South'
tp1247
a(I2
S'East'
tp1248
a(I3
S'South'
tp1249
a(I0
S'East'
tp1250
a(I1
S'South'
tp1251
a(I2
S'East'
tp1252
a(I3
S'South'
tp1253
a(I0
S'East'
tp1254
a(I1
S'South'
tp1255
a(I2
S'East'
tp1256
a(I3
S'South'
tp1257
a(I0
S'East'
tp1258
a(I1
S'South'
tp1259
a(I2
S'East'
tp1260
a(I3
S'South'
tp1261
a(I0
S'East'
tp1262
a(I1
S'South'
tp1263
a(I2
S'East'
tp1264
a(I3
S'South'
tp1265
a(I0
S'East'
tp1266
a(I1
S'South'
tp1267
a(I2
S'East'
tp1268
a(I3
S'South'
tp1269
a(I0
S'East'
tp1270
a(I1
S'South'
tp1271
a(I2
S'East'
tp1272
a(I3
S'West'
tp1273
a(I0
S'East'
tp1274
a(I1
S'South'
tp1275
a(I2
S'East'
tp1276
a(I3
S'West'
tp1277
a(I0
S'East'
tp1278
a(I1
S'South'
tp1279
a(I2
S'East'
tp1280
a(I3
S'South'
tp1281
a(I0
S'East'
tp1282
a(I1
S'South'
tp1283
a(I2
S'West'
tp1284
a(I3
S'South'
tp1285
a(I0
S'East'
tp1286
a(I1
S'South'
tp1287
a(I2
S'West'
tp1288
a(I3
S'South'
tp1289
a(I0
S'East'
tp1290
a(I1
S'West'
tp1291
a(I2
S'East'
tp1292
a(I3
S'South'
tp1293
a(I0
S'East'
tp1294
a(I1
S'West'
tp1295
a(I2
S'East'
tp1296
a(I3
S'South'
tp1297
a(I0
S'East'
tp1298
a(I1
S'West'
tp1299
a(I2
S'East'
tp1300
a(I3
S'West'
tp1301
a(I0
S'East'
tp1302
a(I1
S'West'
tp1303
a(I2
S'East'
tp1304
a(I3
S'West'
tp1305
a(I0
S'East'
tp1306
a(I1
S'North'
tp1307
a(I2
S'East'
tp1308
a(I3
S'West'
tp1309
a(I0
S'East'
tp1310
a(I1
S'North'
tp1311
a(I2
S'East'
tp1312
a(I3
S'West'
tp1313
a(I0
S'East'
tp1314
a(I1
S'East'
tp1315
a(I2
S'East'
tp1316
a(I3
S'West'
tp1317
a(I0
S'East'
tp1318
a(I1
S'East'
tp1319
a(I2
S'East'
tp1320
a(I3
S'West'
tp1321
a(I0
S'East'
tp1322
a(I1
S'East'
tp1323
a(I2
S'East'
tp1324
a(I3
S'North'
tp1325
a(I0
S'East'
tp1326
a(I1
S'East'
tp1327
a(I2
S'East'
tp1328
a(I3
S'North'
tp1329
a(I0
S'East'
tp1330
a(I1
S'North'
tp1331
a(I2
S'East'
tp1332
a(I3
S'West'
tp1333
a(I0
S'East'
tp1334
a(I1
S'North'
tp1335
a(I2
S'East'
tp1336
a(I3
S'West'
tp1337
a(I0
S'East'
tp1338
a(I1
S'North'
tp1339
a(I2
S'East'
tp1340
a(I3
S'West'
tp1341
a(I0
S'East'
tp1342
a(I1
S'North'
tp1343
a(I2
S'East'
tp1344
a(I3
S'West'
tp1345
a(I0
S'East'
tp1346
a(I1
S'North'
tp1347
a(I2
S'East'
tp1348
a(I3
S'South'
tp1349
a(I0
S'East'
tp1350
a(I1
S'North'
tp1351
a(I2
S'East'
tp1352
a(I3
S'South'
tp1353
a(I0
S'South'
tp1354
a(I1
S'North'
tp1355
a(I2
S'East'
tp1356
a(I3
S'South'
tp1357
a(I0
S'South'
tp1358
a(I1
S'North'
tp1359
a(I2
S'East'
tp1360
a(I3
S'South'
tp1361
a(I0
S'South'
tp1362
a(I1
S'West'
tp1363
a(I2
S'East'
tp1364
a(I3
S'West'
tp1365
a(I0
S'South'
tp1366
a(I1
S'North'
tp1367
a(I2
S'East'
tp1368
a(I3
S'West'
tp1369
a(I0
S'South'
tp1370
a(I1
S'West'
tp1371
a(I2
S'East'
tp1372
a(I3
S'West'
tp1373
a(I0
S'South'
tp1374
a(I1
S'North'
tp1375
a(I2
S'East'
tp1376
a(I3
S'West'
tp1377
a(I0
S'South'
tp1378
a(I1
S'East'
tp1379
a(I2
S'East'
tp1380
a(I3
S'South'
tp1381
a(I0
S'South'
tp1382
a(I1
S'South'
tp1383
a(I2
S'East'
tp1384
a(I3
S'South'
tp1385
a(I0
S'South'
tp1386
a(I1
S'West'
tp1387
a(I2
S'East'
tp1388
a(I3
S'South'
tp1389
a(I0
S'South'
tp1390
a(I1
S'North'
tp1391
a(I2
S'East'
tp1392
a(I3
S'South'
tp1393
a(I0
S'South'
tp1394
a(I1
S'East'
tp1395
a(I2
S'East'
tp1396
a(I3
S'South'
tp1397
a(I0
S'South'
tp1398
a(I1
S'South'
tp1399
a(I2
S'East'
tp1400
a(I3
S'South'
tp1401
a(I0
S'South'
tp1402
a(I1
S'West'
tp1403
a(I2
S'East'
tp1404
a(I3
S'South'
tp1405
a(I0
S'South'
tp1406
a(I1
S'North'
tp1407
a(I2
S'North'
tp1408
a(I3
S'South'
tp1409
a(I0
S'West'
tp1410
a(I1
S'East'
tp1411
a(I2
S'North'
tp1412
a(I3
S'North'
tp1413
a(I0
S'West'
tp1414
a(I1
S'North'
tp1415
a(I2
S'North'
tp1416
a(I3
S'North'
tp1417
a(I0
S'West'
tp1418
a(I1
S'West'
tp1419
a(I2
S'North'
tp1420
a(I3
S'North'
tp1421
a(I0
S'West'
tp1422
a(I1
S'North'
tp1423
a(I2
S'North'
tp1424
a(I3
S'North'
tp1425
a(I0
S'North'
tp1426
a(I1
S'North'
tp1427
a(I2
S'North'
tp1428
a(I3
S'North'
tp1429
a(I0
S'North'
tp1430
a(I1
S'North'
tp1431
a(I2
S'North'
tp1432
a(I3
S'North'
tp1433
a(I0
S'North'
tp1434
a(I1
S'North'
tp1435
a(I2
S'North'
tp1436
a(I3
S'North'
tp1437
a(I0
S'North'
tp1438
a(I1
S'North'
tp1439
a(I2
S'North'
tp1440
a(I3
S'North'
tp1441
a(I0
S'West'
tp1442
a(I1
S'North'
tp1443
a(I2
S'North'
tp1444
a(I3
S'West'
tp1445
a(I0
S'West'
tp1446
a(I1
S'West'
tp1447
a(I2
S'North'
tp1448
a(I3
S'West'
tp1449
a(I0
S'West'
tp1450
a(I1
S'West'
tp1451
a(I2
S'North'
tp1452
a(I3
S'West'
tp1453
a(I0
S'East'
tp1454
a(I1
S'West'
tp1455
a(I2
S'North'
tp1456
a(I3
S'West'
tp1457
a(I0
S'East'
tp1458
a(I1
S'North'
tp1459
a(I2
S'North'
tp1460
a(I3
S'West'
tp1461
a(I0
S'North'
tp1462
a(I1
S'East'
tp1463
a(I2
S'North'
tp1464
a(I3
S'West'
tp1465
a(I0
S'East'
tp1466
a(I1
S'South'
tp1467
a(I2
S'North'
tp1468
a(I3
S'West'
tp1469
a(I0
S'East'
tp1470
a(I1
S'East'
tp1471
a(I2
S'North'
tp1472
a(I3
S'West'
tp1473
a(I0
S'East'
tp1474
a(I1
S'East'
tp1475
a(I2
S'North'
tp1476
a(I3
S'North'
tp1477
a(I0
S'East'
tp1478
a(I1
S'South'
tp1479
a(I2
S'North'
tp1480
a(I3
S'North'
tp1481
a(I0
S'South'
tp1482
a(I1
S'South'
tp1483
a(I2
S'North'
tp1484
a(I3
S'West'
tp1485
a(I0
S'South'
tp1486
a(I1
S'South'
tp1487
a(I2
S'West'
tp1488
a(I3
S'West'
tp1489
a(I0
S'South'
tp1490
a(I1
S'South'
tp1491
a(I2
S'West'
tp1492
a(I3
S'North'
tp1493
a(I0
S'South'
tp1494
a(I1
S'South'
tp1495
a(I2
S'West'
tp1496
a(I3
S'North'
tp1497
a(I0
S'South'
tp1498
a(I1
S'South'
tp1499
a(I2
S'West'
tp1500
a(I3
S'East'
tp1501
a(I0
S'South'
tp1502
a(I1
S'South'
tp1503
a(I2
S'East'
tp1504
a(I3
S'East'
tp1505
a(I0
S'South'
tp1506
a(I1
S'South'
tp1507
a(I2
S'East'
tp1508
a(I3
S'South'
tp1509
a(I0
S'South'
tp1510
a(I1
S'East'
tp1511
a(I2
S'West'
tp1512
a(I3
S'South'
tp1513
a(I0
S'West'
tp1514
a(I1
S'South'
tp1515
a(I2
S'West'
tp1516
a(I3
S'South'
tp1517
a(I0
S'West'
tp1518
a(I1
S'West'
tp1519
a(I2
S'Stop'
tp1520
a(I3
S'South'
tp1521
a(I0
S'West'
tp1522
a(I1
S'North'
tp1523
a(I2
S'East'
tp1524
a(I3
S'North'
tp1525
a(I0
S'West'
tp1526
a(I1
S'North'
tp1527
a(I2
S'East'
tp1528
a(I3
S'North'
tp1529
a(I0
S'West'
tp1530
a(I1
S'West'
tp1531
a(I2
S'East'
tp1532
a(I3
S'North'
tp1533
a(I0
S'West'
tp1534
a(I1
S'West'
tp1535
a(I2
S'East'
tp1536
a(I3
S'North'
tp1537
a(I0
S'North'
tp1538
a(I1
S'West'
tp1539
a(I2
S'East'
tp1540
a(I3
S'West'
tp1541
a(I0
S'East'
tp1542
a(I1
S'West'
tp1543
a(I2
S'East'
tp1544
a(I3
S'West'
tp1545
a(I0
S'East'
tp1546
a(I1
S'North'
tp1547
a(I2
S'East'
tp1548
a(I3
S'West'
tp1549
a(I0
S'South'
tp1550
a(I1
S'North'
tp1551
a(I2
S'East'
tp1552
a(I3
S'West'
tp1553
a(I0
S'West'
tp1554
a(I1
S'North'
tp1555
a(I2
S'East'
tp1556
a(I3
S'North'
tp1557
a(I0
S'West'
tp1558
a(I1
S'North'
tp1559
a(I2
S'East'
tp1560
a(I3
S'North'
tp1561
a(I0
S'North'
tp1562
a(I1
S'North'
tp1563
a(I2
S'East'
tp1564
a(I3
S'North'
tp1565
a(I0
S'East'
tp1566
a(I1
S'West'
tp1567
a(I2
S'East'
tp1568
a(I3
S'North'
tp1569
a(I0
S'North'
tp1570
a(I1
S'West'
tp1571
a(I2
S'East'
tp1572
a(I3
S'North'
tp1573
a(I0
S'West'
tp1574
a(I1
S'South'
tp1575
a(I2
S'East'
tp1576
a(I3
S'North'
tp1577
a(I0
S'North'
tp1578
a(I1
S'South'
tp1579
a(I2
S'East'
tp1580
a(I3
S'South'
tp1581
a(I0
S'North'
tp1582
a(I1
S'South'
tp1583
a(I2
S'East'
tp1584
a(I3
S'South'
tp1585
a(I0
S'East'
tp1586
a(I1
S'South'
tp1587
a(I2
S'East'
tp1588
a(I3
S'South'
tp1589
a(I0
S'East'
tp1590
a(I1
S'South'
tp1591
a(I2
S'East'
tp1592
a(I3
S'South'
tp1593
a(I0
S'North'
tp1594
a(I1
S'East'
tp1595
a(I2
S'East'
tp1596
a(I3
S'South'
tp1597
a(I0
S'East'
tp1598
a(I1
S'East'
tp1599
a(I2
S'East'
tp1600
a(I3
S'South'
tp1601
a(I0
S'East'
tp1602
a(I1
S'East'
tp1603
a(I2
S'East'
tp1604
a(I3
S'South'
tp1605
a(I0
S'North'
tp1606
a(I1
S'East'
tp1607
a(I2
S'East'
tp1608
a(I3
S'South'
tp1609
a(I0
S'North'
tp1610
a(I1
S'East'
tp1611
a(I2
S'East'
tp1612
a(I3
S'South'
tp1613
a(I0
S'North'
tp1614
a(I1
S'East'
tp1615
a(I2
S'East'
tp1616
a(I3
S'West'
tp1617
a(I0
S'East'
tp1618
a(I1
S'South'
tp1619
a(I2
S'East'
tp1620
a(I3
S'West'
tp1621
a(I0
S'East'
tp1622
a(I1
S'South'
tp1623
a(I2
S'East'
tp1624
a(I3
S'South'
tp1625
a(I0
S'East'
tp1626
a(I1
S'East'
tp1627
a(I2
S'East'
tp1628
a(I3
S'South'
tp1629
a(I0
S'East'
tp1630
a(I1
S'East'
tp1631
a(I2
S'East'
tp1632
a(I3
S'South'
tp1633
a(I0
S'South'
tp1634
a(I1
S'South'
tp1635
a(I2
S'North'
tp1636
a(I3
S'South'
tp1637
a(I0
S'East'
tp1638
a(I1
S'South'
tp1639
a(I2
S'North'
tp1640
a(I3
S'South'
tp1641
a(I0
S'East'
tp1642
a(I1
S'South'
tp1643
a(I2
S'North'
tp1644
a(I3
S'West'
tp1645
a(I0
S'North'
tp1646
a(I1
S'South'
tp1647
a(I2
S'North'
tp1648
a(I3
S'West'
tp1649
a(I0
S'North'
tp1650
a(I1
S'South'
tp1651
a(I2
S'West'
tp1652
a(I3
S'West'
tp1653
a(I0
S'East'
tp1654
a(I1
S'South'
tp1655
a(I2
S'West'
tp1656
a(I3
S'West'
tp1657
a(I0
S'East'
tp1658
a(I1
S'South'
tp1659
a(I2
S'West'
tp1660
a(I3
S'West'
tp1661
a(I0
S'East'
tp1662
a(I1
S'South'
tp1663
a(I2
S'West'
tp1664
a(I3
S'West'
tp1665
a(I0
S'East'
tp1666
a(I1
S'West'
tp1667
a(I2
S'West'
tp1668
a(I3
S'South'
tp1669
a(I0
S'East'
tp1670
a(I1
S'West'
tp1671
a(I2
S'West'
tp1672
a(I3
S'South'
tp1673
a(I0
S'East'
tp1674
a(I1
S'West'
tp1675
a(I2
S'East'
tp1676
a(I3
S'South'
tp1677
a(I0
S'East'
tp1678
a(I1
S'West'
tp1679
a(I2
S'East'
tp1680
a(I3
S'South'
tp1681
a(I0
S'East'
tp1682
a(I1
S'South'
tp1683
a(I2
S'East'
tp1684
a(I3
S'South'
tp1685
a(I0
S'East'
tp1686
a(I1
S'South'
tp1687
a(I2
S'East'
tp1688
a(I3
S'West'
tp1689
a(I0
S'East'
tp1690
a(I1
S'East'
tp1691
a(I2
S'East'
tp1692
a(I3
S'West'
tp1693
a(I0
S'East'
tp1694
a(I1
S'East'
tp1695
a(I2
S'East'
tp1696
a(I3
S'West'
tp1697
a(I0
S'East'
tp1698
a(I1
S'East'
tp1699
a(I2
S'East'
tp1700
a(I3
S'West'
tp1701
a(I0
S'West'
tp1702
a(I1
S'East'
tp1703
a(I2
S'East'
tp1704
a(I3
S'North'
tp1705
a(I0
S'West'
tp1706
a(I1
S'North'
tp1707
a(I2
S'East'
tp1708
a(I3
S'North'
tp1709
a(I0
S'South'
tp1710
a(I1
S'North'
tp1711
a(I2
S'East'
tp1712
a(I3
S'North'
tp1713
a(I0
S'South'
tp1714
a(I1
S'North'
tp1715
a(I2
S'East'
tp1716
a(I3
S'North'
tp1717
a(I0
S'West'
tp1718
a(I1
S'North'
tp1719
a(I2
S'East'
tp1720
a(I3
S'South'
tp1721
a(I0
S'West'
tp1722
a(I1
S'North'
tp1723
a(I2
S'East'
tp1724
a(I3
S'South'
tp1725
a(I0
S'West'
tp1726
a(I1
S'North'
tp1727
a(I2
S'East'
tp1728
a(I3
S'South'
tp1729
a(I0
S'West'
tp1730
a(I1
S'North'
tp1731
a(I2
S'East'
tp1732
a(I3
S'South'
tp1733
a(I0
S'South'
tp1734
a(I1
S'North'
tp1735
a(I2
S'East'
tp1736
a(I3
S'West'
tp1737
a(I0
S'South'
tp1738
a(I1
S'North'
tp1739
a(I2
S'East'
tp1740
a(I3
S'West'
tp1741
a(I0
S'South'
tp1742
a(I1
S'North'
tp1743
a(I2
S'East'
tp1744
a(I3
S'West'
tp1745
a(I0
S'South'
tp1746
a(I1
S'North'
tp1747
a(I2
S'East'
tp1748
a(I3
S'West'
tp1749
a(I0
S'South'
tp1750
a(I1
S'West'
tp1751
a(I2
S'East'
tp1752
a(I3
S'South'
tp1753
a(I0
S'South'
tp1754
a(I1
S'North'
tp1755
a(I2
S'East'
tp1756
a(I3
S'South'
tp1757
a(I0
S'South'
tp1758
a(I1
S'West'
tp1759
a(I2
S'East'
tp1760
a(I3
S'South'
tp1761
a(I0
S'South'
tp1762
a(I1
S'West'
tp1763
a(I2
S'East'
tp1764
a(I3
S'South'
tp1765
a(I0
S'South'
tp1766
a(I1
S'West'
tp1767
a(I2
S'East'
tp1768
a(I3
S'North'
tp1769
a(I0
S'South'
tp1770
a(I1
S'West'
tp1771
a(I2
S'East'
tp1772
a(I3
S'North'
tp1773
a(I0
S'South'
tp1774
a(I1
S'West'
tp1775
a(I2
S'East'
tp1776
a(I3
S'North'
tp1777
a(I0
S'South'
tp1778
a(I1
S'North'
tp1779
a(I2
S'East'
tp1780
a(I3
S'North'
tp1781
a(I0
S'North'
tp1782
a(I1
S'North'
tp1783
a(I2
S'East'
tp1784
a(I3
S'South'
tp1785
a(I0
S'East'
tp1786
a(I1
S'North'
tp1787
a(I2
S'East'
tp1788
a(I3
S'South'
tp1789
a(I0
S'East'
tp1790
a(I1
S'North'
tp1791
a(I2
S'North'
tp1792
a(I3
S'South'
tp1793
a(I0
S'North'
tp1794
a(I1
S'North'
tp1795
a(I2
S'North'
tp1796
a(I3
S'South'
tp1797
a(I0
S'East'
tp1798
a(I1
S'North'
tp1799
a(I2
S'North'
tp1800
a(I3
S'West'
tp1801
a(I0
S'East'
tp1802
a(I1
S'North'
tp1803
a(I2
S'North'
tp1804
a(I3
S'West'
tp1805
a(I0
S'East'
tp1806
a(I1
S'East'
tp1807
a(I2
S'North'
tp1808
a(I3
S'West'
tp1809
a(I0
S'East'
tp1810
a(I1
S'East'
tp1811
a(I2
S'North'
tp1812
a(I3
S'West'
tp1813
a(I0
S'South'
tp1814
a(I1
S'East'
tp1815
a(I2
S'North'
tp1816
a(I3
S'West'
tp1817
a(I0
S'South'
tp1818
a(I1
S'East'
tp1819
a(I2
S'North'
tp1820
a(I3
S'West'
tp1821
a(I0
S'South'
tp1822
a(I1
S'South'
tp1823
a(I2
S'North'
tp1824
a(I3
S'West'
tp1825
a(I0
S'South'
tp1826
a(I1
S'South'
tp1827
a(I2
S'North'
tp1828
a(I3
S'West'
tp1829
a(I0
S'South'
tp1830
a(I1
S'South'
tp1831
a(I2
S'North'
tp1832
a(I3
S'North'
tp1833
a(I0
S'South'
tp1834
a(I1
S'South'
tp1835
a(I2
S'North'
tp1836
a(I3
S'North'
tp1837
a(I0
S'South'
tp1838
a(I1
S'South'
tp1839
a(I2
S'North'
tp1840
a(I3
S'North'
tp1841
a(I0
S'South'
tp1842
a(I1
S'South'
tp1843
a(I2
S'North'
tp1844
a(I3
S'North'
tp1845
a(I0
S'South'
tp1846
a(I1
S'South'
tp1847
a(I2
S'North'
tp1848
a(I3
S'North'
tp1849
a(I0
S'South'
tp1850
a(I1
S'South'
tp1851
a(I2
S'North'
tp1852
a(I3
S'North'
tp1853
a(I0
S'South'
tp1854
a(I1
S'East'
tp1855
a(I2
S'West'
tp1856
a(I3
S'North'
tp1857
a(I0
S'South'
tp1858
a(I1
S'South'
tp1859
a(I2
S'West'
tp1860
a(I3
S'North'
tp1861
a(I0
S'South'
tp1862
a(I1
S'East'
tp1863
a(I2
S'West'
tp1864
a(I3
S'North'
tp1865
a(I0
S'South'
tp1866
a(I1
S'South'
tp1867
a(I2
S'West'
tp1868
a(I3
S'North'
tp1869
a(I0
S'South'
tp1870
a(I1
S'South'
tp1871
a(I2
S'South'
tp1872
a(I3
S'South'
tp1873
a(I0
S'West'
tp1874
a(I1
S'West'
tp1875
a(I2
S'South'
tp1876
a(I3
S'South'
tp1877
a(I0
S'West'
tp1878
a(I1
S'West'
tp1879
a(I2
S'West'
tp1880
a(I3
S'South'
tp1881
a(I0
S'West'
tp1882
a(I1
S'South'
tp1883
a(I2
S'West'
tp1884
a(I3
S'South'
tp1885
a(I0
S'West'
tp1886
a(I1
S'West'
tp1887
a(I2
S'Stop'
tp1888
a(I3
S'South'
tp1889
a(I0
S'North'
tp1890
a(I1
S'West'
tp1891
a(I2
S'North'
tp1892
a(I3
S'South'
tp1893
a(I0
S'North'
tp1894
a(I1
S'North'
tp1895
a(I2
S'North'
tp1896
a(I3
S'West'
tp1897
a(I0
S'West'
tp1898
a(I1
S'North'
tp1899
a(I2
S'North'
tp1900
a(I3
S'South'
tp1901
a(I0
S'West'
tp1902
a(I1
S'North'
tp1903
a(I2
S'North'
tp1904
a(I3
S'South'
tp1905
a(I0
S'North'
tp1906
a(I1
S'West'
tp1907
a(I2
S'North'
tp1908
a(I3
S'South'
tp1909
a(I0
S'North'
tp1910
a(I1
S'West'
tp1911
a(I2
S'North'
tp1912
a(I3
S'South'
tp1913
a(I0
S'South'
tp1914
a(I1
S'North'
tp1915
a(I2
S'North'
tp1916
a(I3
S'South'
tp1917
a(I0
S'South'
tp1918
a(I1
S'North'
tp1919
a(I2
S'East'
tp1920
a(I3
S'South'
tp1921
a(I0
S'East'
tp1922
a(I1
S'East'
tp1923
a(I2
S'East'
tp1924
a(I3
S'South'
tp1925
a(I0
S'East'
tp1926
a(I1
S'East'
tp1927
a(I2
S'North'
tp1928
a(I3
S'West'
tp1929
a(I0
S'North'
tp1930
a(I1
S'East'
tp1931
a(I2
S'North'
tp1932
a(I3
S'West'
tp1933
a(I0
S'North'
tp1934
a(I1
S'East'
tp1935
a(I2
S'North'
tp1936
a(I3
S'South'
tp1937
a(I0
S'North'
tp1938
a(I1
S'East'
tp1939
a(I2
S'North'
tp1940
a(I3
S'South'
tp1941
a(I0
S'North'
tp1942
a(I1
S'South'
tp1943
a(I2
S'North'
tp1944
a(I3
S'South'
tp1945
a(I0
S'North'
tp1946
a(I1
S'West'
tp1947
a(I2
S'East'
tp1948
a(I3
S'South'
tp1949
a(I0
S'West'
tp1950
a(I1
S'North'
tp1951
a(I2
S'East'
tp1952
a(I3
S'South'
tp1953
a(I0
S'West'
tp1954
a(I1
S'West'
tp1955
a(I2
S'East'
tp1956
a(I3
S'West'
tp1957
a(I0
S'North'
tp1958
a(I1
S'West'
tp1959
a(I2
S'East'
tp1960
a(I3
S'West'
tp1961
a(I0
S'East'
tp1962
a(I1
S'West'
tp1963
a(I2
S'East'
tp1964
a(I3
S'West'
tp1965
a(I0
S'East'
tp1966
a(I1
S'West'
tp1967
a(I2
S'East'
tp1968
a(I3
S'West'
tp1969
a(I0
S'North'
tp1970
a(I1
S'South'
tp1971
a(I2
S'North'
tp1972
a(I3
S'West'
tp1973
a(I0
S'West'
tp1974
a(I1
S'South'
tp1975
a(I2
S'North'
tp1976
a(I3
S'West'
tp1977
a(I0
S'South'
tp1978
a(I1
S'East'
tp1979
a(I2
S'East'
tp1980
a(I3
S'South'
tp1981
a(I0
S'East'
tp1982
a(I1
S'East'
tp1983
a(I2
S'East'
tp1984
a(I3
S'South'
tp1985
a(I0
S'South'
tp1986
a(I1
S'South'
tp1987
a(I2
S'East'
tp1988
a(I3
S'South'
tp1989
a(I0
S'East'
tp1990
a(I1
S'South'
tp1991
a(I2
S'East'
tp1992
a(I3
S'South'
tp1993
a(I0
S'East'
tp1994
a(I1
S'South'
tp1995
a(I2
S'South'
tp1996
a(I3
S'South'
tp1997
a(I0
S'East'
tp1998
a(I1
S'East'
tp1999
a(I2
S'South'
tp2000
a(I3
S'West'
tp2001
a(I0
S'East'
tp2002
a(I1
S'East'
tp2003
a(I2
S'South'
tp2004
a(I3
S'West'
tp2005
a(I0
S'East'
tp2006
a(I1
S'North'
tp2007
a(I2
S'South'
tp2008
a(I3
S'West'
tp2009
a(I0
S'East'
tp2010
a(I1
S'East'
tp2011
a(I2
S'East'
tp2012
a(I3
S'West'
tp2013
a(I0
S'North'
tp2014
a(I1
S'East'
tp2015
a(I2
S'East'
tp2016
a(I3
S'West'
tp2017
a(I0
S'North'
tp2018
a(I1
S'North'
tp2019
a(I2
S'East'
tp2020
a(I3
S'West'
tp2021
a(I0
S'East'
tp2022
a(I1
S'North'
tp2023
a(I2
S'East'
tp2024
a(I3
S'West'
tp2025
a(I0
S'East'
tp2026
a(I1
S'North'
tp2027
a(I2
S'East'
tp2028
a(I3
S'West'
tp2029
a(I0
S'West'
tp2030
a(I1
S'West'
tp2031
a(I2
S'East'
tp2032
a(I3
S'East'
tp2033
a(I0
S'West'
tp2034
a(I1
S'North'
tp2035
a(I2
S'East'
tp2036
a(I3
S'East'
tp2037
a(I0
S'West'
tp2038
a(I1
S'West'
tp2039
a(I2
S'East'
tp2040
a(I3
S'East'
tp2041
a(I0
S'South'
tp2042
a(I1
S'West'
tp2043
a(I2
S'West'
tp2044
a(I3
S'East'
tp2045
a(I0
S'South'
tp2046
a(I1
S'West'
tp2047
a(I2
S'West'
tp2048
a(I3
S'East'
tp2049
a(I0
S'South'
tp2050
a(I1
S'West'
tp2051
a(I2
S'East'
tp2052
a(I3
S'East'
tp2053
a(I0
S'South'
tp2054
a(I1
S'West'
tp2055
a(I2
S'North'
tp2056
a(I3
S'West'
tp2057
a(I0
S'South'
tp2058
a(I1
S'South'
tp2059
a(I2
S'North'
tp2060
a(I3
S'West'
tp2061
a(I0
S'South'
tp2062
a(I1
S'South'
tp2063
a(I2
S'North'
tp2064
a(I3
S'West'
tp2065
a(I0
S'South'
tp2066
a(I1
S'East'
tp2067
a(I2
S'North'
tp2068
a(I3
S'West'
tp2069
a(I0
S'West'
tp2070
a(I1
S'East'
tp2071
a(I2
S'North'
tp2072
a(I3
S'West'
tp2073
a(I0
S'West'
tp2074
a(I1
S'South'
tp2075
a(I2
S'North'
tp2076
a(I3
S'South'
tp2077
a(I0
S'North'
tp2078
a(I1
S'South'
tp2079
a(I2
S'North'
tp2080
a(I3
S'South'
tp2081
a(I0
S'North'
tp2082
a(I1
S'South'
tp2083
a(I2
S'East'
tp2084
a(I3
S'South'
tp2085
a(I0
S'North'
tp2086
a(I1
S'South'
tp2087
a(I2
S'East'
tp2088
a(I3
S'South'
tp2089
a(I0
S'North'
tp2090
a(I1
S'South'
tp2091
a(I2
S'North'
tp2092
a(I3
S'South'
tp2093
a(I0
S'North'
tp2094
a(I1
S'South'
tp2095
a(I2
S'North'
tp2096
a(I3
S'South'
tp2097
a(I0
S'East'
tp2098
a(I1
S'West'
tp2099
a(I2
S'North'
tp2100
a(I3
S'South'
tp2101
a(I0
S'East'
tp2102
a(I1
S'West'
tp2103
a(I2
S'North'
tp2104
a(I3
S'West'
tp2105
a(I0
S'North'
tp2106
a(I1
S'North'
tp2107
a(I2
S'North'
tp2108
a(I3
S'West'
tp2109
a(I0
S'North'
tp2110
a(I1
S'North'
tp2111
a(I2
S'East'
tp2112
a(I3
S'South'
tp2113
a(I0
S'East'
tp2114
a(I1
S'North'
tp2115
a(I2
S'East'
tp2116
a(I3
S'South'
tp2117
a(I0
S'East'
tp2118
a(I1
S'North'
tp2119
a(I2
S'East'
tp2120
a(I3
S'South'
tp2121
a(I0
S'East'
tp2122
a(I1
S'North'
tp2123
a(I2
S'East'
tp2124
a(I3
S'South'
tp2125
a(I0
S'East'
tp2126
a(I1
S'North'
tp2127
a(I2
S'East'
tp2128
a(I3
S'South'
tp2129
a(I0
S'South'
tp2130
a(I1
S'North'
tp2131
a(I2
S'East'
tp2132
a(I3
S'West'
tp2133
a(I0
S'South'
tp2134
a(I1
S'North'
tp2135
a(I2
S'North'
tp2136
a(I3
S'West'
tp2137
a(I0
S'North'
tp2138
a(I1
S'West'
tp2139
a(I2
S'North'
tp2140
a(I3
S'West'
tp2141
a(I0
S'North'
tp2142
a(I1
S'West'
tp2143
a(I2
S'East'
tp2144
a(I3
S'West'
tp2145
a(I0
S'Stop'
tp2146
a(I1
S'North'
tp2147
a(I2
S'East'
tp2148
a(I3
S'West'
tp2149
a(I0
S'West'
tp2150
a(I1
S'North'
tp2151
a(I2
S'East'
tp2152
a(I3
S'West'
tp2153
a(I0
S'West'
tp2154
a(I1
S'West'
tp2155
a(I2
S'North'
tp2156
a(I3
S'North'
tp2157
a(I0
S'West'
tp2158
a(I1
S'North'
tp2159
a(I2
S'North'
tp2160
a(I3
S'North'
tp2161
a(I0
S'East'
tp2162
a(I1
S'East'
tp2163
a(I2
S'North'
tp2164
a(I3
S'West'
tp2165
a(I0
S'East'
tp2166
a(I1
S'South'
tp2167
a(I2
S'North'
tp2168
a(I3
S'West'
tp2169
a(I0
S'North'
tp2170
a(I1
S'South'
tp2171
a(I2
S'North'
tp2172
a(I3
S'West'
tp2173
a(I0
S'East'
tp2174
a(I1
S'South'
tp2175
a(I2
S'North'
tp2176
a(I3
S'West'
tp2177
a(I0
S'East'
tp2178
a(I1
S'East'
tp2179
a(I2
S'North'
tp2180
a(I3
S'South'
tp2181
a(I0
S'East'
tp2182
a(I1
S'East'
tp2183
a(I2
S'East'
tp2184
a(I3
S'South'
tp2185
a(I0
S'East'
tp2186
a(I1
S'South'
tp2187
a(I2
S'East'
tp2188
a(I3
S'South'
tp2189
a(I0
S'East'
tp2190
a(I1
S'South'
tp2191
a(I2
S'North'
tp2192
a(I3
S'South'
tp2193
a(I0
S'East'
tp2194
a(I1
S'East'
tp2195
a(I2
S'North'
tp2196
a(I3
S'South'
tp2197
a(I0
S'South'
tp2198
a(I1
S'East'
tp2199
a(I2
S'North'
tp2200
a(I3
S'South'
tp2201
a(I0
S'East'
tp2202
a(I1
S'South'
tp2203
a(I2
S'North'
tp2204
a(I3
S'South'
tp2205
a(I0
S'East'
tp2206
a(I1
S'South'
tp2207
a(I2
S'North'
tp2208
a(I3
S'South'
tp2209
a(I0
S'West'
tp2210
a(I1
S'South'
tp2211
a(I2
S'East'
tp2212
a(I3
S'South'
tp2213
a(I0
S'West'
tp2214
a(I1
S'South'
tp2215
a(I2
S'East'
tp2216
a(I3
S'South'
tp2217
a(I0
S'West'
tp2218
a(I1
S'South'
tp2219
a(I2
S'East'
tp2220
a(I3
S'South'
tp2221
a(I0
S'North'
tp2222
a(I1
S'South'
tp2223
a(I2
S'East'
tp2224
a(I3
S'South'
tp2225
a(I0
S'West'
tp2226
a(I1
S'West'
tp2227
a(I2
S'East'
tp2228
a(I3
S'South'
tp2229
a(I0
S'West'
tp2230
a(I1
S'West'
tp2231
a(I2
S'East'
tp2232
a(I3
S'South'
tp2233
a(I0
S'South'
tp2234
a(I1
S'North'
tp2235
a(I2
S'North'
tp2236
a(I3
S'West'
tp2237
a(I0
S'South'
tp2238
a(I1
S'North'
tp2239
a(I2
S'North'
tp2240
a(I3
S'West'
tp2241
a(I0
S'South'
tp2242
a(I1
S'North'
tp2243
a(I2
S'East'
tp2244
a(I3
S'West'
tp2245
a(I0
S'South'
tp2246
a(I1
S'North'
tp2247
a(I2
S'East'
tp2248
a(I3
S'West'
tp2249
a(I0
S'South'
tp2250
a(I1
S'North'
tp2251
a(I2
S'East'
tp2252
a(I3
S'South'
tp2253
a(I0
S'South'
tp2254
a(I1
S'North'
tp2255
a(I2
S'East'
tp2256
a(I3
S'South'
tp2257
a(I0
S'South'
tp2258
a(I1
S'North'
tp2259
a(I2
S'South'
tp2260
a(I3
S'North'
tp2261
a(I0
S'South'
tp2262
a(I1
S'North'
tp2263
a(I2
S'South'
tp2264
a(I3
S'North'
tp2265
a(I0
S'South'
tp2266
a(I1
S'West'
tp2267
a(I2
S'North'
tp2268
a(I3
S'East'
tp2269
a(I0
S'South'
tp2270
a(I1
S'West'
tp2271
a(I2
S'North'
tp2272
a(I3
S'East'
tp2273
a(I0
S'South'
tp2274
a(I1
S'North'
tp2275
a(I2
S'West'
tp2276
a(I3
S'East'
tp2277
a(I0
S'South'
tp2278
a(I1
S'North'
tp2279
a(I2
S'West'
tp2280
a(I3
S'East'
tp2281
a(I0
S'South'
tp2282
a(I1
S'West'
tp2283
a(I2
S'East'
tp2284
a(I3
S'West'
tp2285
a(I0
S'East'
tp2286
a(I1
S'North'
tp2287
a(I2
S'North'
tp2288
a(I3
S'West'
tp2289
a(I0
S'East'
tp2290
a(I1
S'East'
tp2291
a(I2
S'North'
tp2292
a(I3
S'South'
tp2293
a(I0
S'East'
tp2294
a(I1
S'South'
tp2295
a(I2
S'North'
tp2296
a(I3
S'South'
tp2297
a(I0
S'East'
tp2298
a(I1
S'South'
tp2299
a(I2
S'North'
tp2300
a(I3
S'South'
tp2301
a(I0
S'East'
tp2302
a(I1
S'South'
tp2303
a(I2
S'North'
tp2304
a(I3
S'South'
tp2305
a(I0
S'East'
tp2306
a(I1
S'South'
tp2307
a(I2
S'North'
tp2308
a(I3
S'South'
tp2309
a(I0
S'North'
tp2310
a(I1
S'South'
tp2311
a(I2
S'North'
tp2312
a(I3
S'South'
tp2313
a(I0
S'North'
tp2314
a(I1
S'South'
tp2315
a(I2
S'East'
tp2316
a(I3
S'South'
tp2317
a(I0
S'South'
tp2318
a(I1
S'South'
tp2319
a(I2
S'East'
tp2320
a(I3
S'West'
tp2321
a(I0
S'South'
tp2322
a(I1
S'South'
tp2323
a(I2
S'North'
tp2324
a(I3
S'West'
tp2325
a(I0
S'West'
tp2326
a(I1
S'West'
tp2327
a(I2
S'North'
tp2328
a(I3
S'South'
tp2329
a(I0
S'East'
tp2330
a(I1
S'West'
tp2331
a(I2
S'North'
tp2332
a(I3
S'South'
tp2333
a(I0
S'East'
tp2334
a(I1
S'East'
tp2335
a(I2
S'North'
tp2336
a(I3
S'South'
tp2337
a(I0
S'North'
tp2338
a(I1
S'East'
tp2339
a(I2
S'North'
tp2340
a(I3
S'South'
tp2341
a(I0
S'East'
tp2342
a(I1
S'East'
tp2343
a(I2
S'East'
tp2344
a(I3
S'South'
tp2345
a(I0
S'East'
tp2346
a(I1
S'North'
tp2347
a(I2
S'East'
tp2348
a(I3
S'West'
tp2349
a(I0
S'East'
tp2350
a(I1
S'North'
tp2351
a(I2
S'East'
tp2352
a(I3
S'West'
tp2353
a(I0
S'East'
tp2354
a(I1
S'North'
tp2355
a(I2
S'East'
tp2356
a(I3
S'West'
tp2357
a(I0
S'East'
tp2358
a(I1
S'North'
tp2359
a(I2
S'East'
tp2360
a(I3
S'West'
tp2361
a(I0
S'East'
tp2362
a(I1
S'North'
tp2363
a(I2
S'East'
tp2364
a(I3
S'West'
tp2365
a(I0
S'South'
tp2366
a(I1
S'East'
tp2367
a(I2
S'North'
tp2368
a(I3
S'West'
tp2369
a(I0
S'East'
tp2370
a(I1
S'East'
tp2371
a(I2
S'North'
tp2372
a(I3
S'South'
tp2373
a(I0
S'East'
tp2374
a(I1
S'South'
tp2375
a(I2
S'East'
tp2376
a(I3
S'South'
tp2377
a(I0
S'North'
tp2378
a(I1
S'South'
tp2379
a(I2
S'East'
tp2380
a(I3
S'South'
tp2381
a(I0
S'North'
tp2382
a(I1
S'East'
tp2383
a(I2
S'East'
tp2384
a(I3
S'South'
tp2385
a(I0
S'East'
tp2386
a(I1
S'East'
tp2387
a(I2
S'East'
tp2388
a(I3
S'South'
tp2389
a(I0
S'East'
tp2390
a(I1
S'South'
tp2391
a(I2
S'South'
tp2392
a(I3
S'West'
tp2393
a(I0
S'East'
tp2394
a(I1
S'South'
tp2395
a(I2
S'South'
tp2396
a(I3
S'West'
tp2397
a(I0
S'East'
tp2398
a(I1
S'South'
tp2399
a(I2
S'South'
tp2400
a(I3
S'West'
tp2401
a(I0
S'East'
tp2402
a(I1
S'South'
tp2403
a(I2
S'South'
tp2404
a(I3
S'West'
tp2405
a(I0
S'East'
tp2406
a(I1
S'South'
tp2407
a(I2
S'East'
tp2408
a(I3
S'West'
tp2409
a(I0
S'South'
tp2410
a(I1
S'South'
tp2411
a(I2
S'East'
tp2412
a(I3
S'West'
tp2413
a(I0
S'South'
tp2414
a(I1
S'West'
tp2415
a(I2
S'East'
tp2416
a(I3
S'West'
tp2417
a(I0
S'South'
tp2418
a(I1
S'West'
tp2419
a(I2
S'East'
tp2420
a(I3
S'West'
tp2421
a(I0
S'South'
tp2422
a(I1
S'North'
tp2423
a(I2
S'South'
tp2424
a(I3
S'South'
tp2425
a(I0
S'South'
tp2426
a(I1
S'North'
tp2427
a(I2
S'South'
tp2428
a(I3
S'South'
tp2429
a(I0
S'South'
tp2430
a(I1
S'North'
tp2431
a(I2
S'South'
tp2432
a(I3
S'North'
tp2433
a(I0
S'South'
tp2434
a(I1
S'North'
tp2435
a(I2
S'South'
tp2436
a(I3
S'North'
tp2437
a(I0
S'South'
tp2438
a(I1
S'North'
tp2439
a(I2
S'East'
tp2440
a(I3
S'East'
tp2441
a(I0
S'South'
tp2442
a(I1
S'North'
tp2443
a(I2
S'East'
tp2444
a(I3
S'East'
tp2445
a(I0
S'South'
tp2446
a(I1
S'East'
tp2447
a(I2
S'Stop'
tp2448
a(I3
S'West'
tp2449
a(I0
S'South'
tp2450
a(I1
S'East'
tp2451
a(I2
S'North'
tp2452
a(I3
S'West'
tp2453
a(I0
S'South'
tp2454
a(I1
S'South'
tp2455
a(I2
S'North'
tp2456
a(I3
S'South'
tp2457
a(I0
S'South'
tp2458
a(I1
S'South'
tp2459
a(I2
S'North'
tp2460
a(I3
S'South'
tp2461
a(I0
S'South'
tp2462
a(I1
S'South'
tp2463
a(I2
S'North'
tp2464
a(I3
S'South'
tp2465
a(I0
S'South'
tp2466
a(I1
S'South'
tp2467
a(I2
S'North'
tp2468
a(I3
S'South'
tp2469
a(I0
S'South'
tp2470
a(I1
S'South'
tp2471
a(I2
S'North'
tp2472
a(I3
S'South'
tp2473
a(I0
S'East'
tp2474
a(I1
S'South'
tp2475
a(I2
S'North'
tp2476
a(I3
S'South'
tp2477
a(I0
S'East'
tp2478
a(I1
S'West'
tp2479
a(I2
S'East'
tp2480
a(I3
S'West'
tp2481
a(I0
S'East'
tp2482
a(I1
S'West'
tp2483
a(I2
S'East'
tp2484
a(I3
S'West'
tp2485
a(I0
S'East'
tp2486
a(I1
S'North'
tp2487
a(I2
S'South'
tp2488
a(I3
S'West'
tp2489
a(I0
S'East'
tp2490
a(I1
S'North'
tp2491
a(I2
S'South'
tp2492
a(I3
S'West'
tp2493
a(I0
S'East'
tp2494
a(I1
S'North'
tp2495
a(I2
S'East'
tp2496
a(I3
S'West'
tp2497
a(I0
S'East'
tp2498
a(I1
S'North'
tp2499
a(I2
S'East'
tp2500
a(I3
S'West'
tp2501
asS'gameOver'
p2502
I01
sS'display'
p2503
(igraphicsDisplay
PacmanGraphics
p2504
(dp2505
S'pacmanImage'
p2506
NsS'capture'
p2507
I01
sS'gridSize'
p2508
F30
sg20
(ilayout
Layout
p2509
(dp2510
g23
(lp2511
sg25
I4
sg26
(igame
Grid
p2512
(dp2513
g29
I30
sg30
I22
sg15
(lp2514
(lp2515
I00
aI00
aI00
aI00
aI00
aI00
aI00
aI00
aI00
aI00
aI00
aI00
aI00
aI00
aI00
aI00
aI00
aI00
aI00
aI00
aI00
aI00
aI00
aI00
aI00
aI00
aI00
aa(lp2516
I00
aI00
aI00
aI00
aI00
aI00
aI00
aI00
aI00
aI00
aI00
aI00
aI01
aI01
aI01
aI01
aI01
aI01
aI01
aI00
aI00
aI00
aI00
aI01
aI01
aI01
aI00
aa(lp2517
I00
aI00
aI00
aI00
aI00
aI00
aI00
aI00
aI00
aI00
aI00
aI00
aI01
aI01
aI01
aI01
aI00
aI01
aI00
aI00
aI00
aI00
aI00
aI01
aI00
aI00
aI00
aa(lp2518
I00
aI00
aI00
aI00
aI00
aI00
aI01
aI01
aI01
aI01
aI01
aI01
aI01
aI01
aI01
aI01
aI00
aI01
aI01
aI00
aI00
aI00
aI00
aI01
aI00
aI00
aI00
aa(lp2519
I00
aI00
aI00
aI00
aI00
aI01
aI00
aI00
aI00
aI00
aI00
aI00
aI00
aI01
aI00
aI00
aI00
aI00
aI01
aI00
aI00
aI00
aI00
aI01
aI00
aI00
aI00
aa(lp2520
I00
aI00
aI00
aI00
aI00
aI00
aI01
aI00
aI00
aI00
aI00
aI00
aI00
aI01
aI00
aI01
aI01
aI01
aI01
aI00
aI00
aI00
aI00
aI01
aI00
aI00
aI00
aa(lp2521
I00
aI00
aI00
aI00
aI00
aI01
aI00
aI00
aI00
aI00
aI00
aI00
aI00
aI01
aI00
aI01
aI00
aI00
aI00
aI00
aI00
aI00
aI00
aI00
aI00
aI00
aI00
aa(lp2522
I00
aI00
aI00
aI00
aI00
aI00
aI01
aI01
aI01
aI01
aI01
aI01
aI01
aI01
aI01
aI01
aI00
aI00
aI00
aI00
aI00
aI00
aI00
aI00
aI00
aI00
aI00
aa(lp2523
I00
aI00
aI00
aI00
aI00
aI01
aI00
aI00
aI01
aI00
aI00
aI00
aI00
aI00
aI00
aI00
aI00
aI00
aI00
aI00
aI00
aI00
aI00
aI01
aI00
aI00
aI00
aa(lp2524
I00
aI00
aI00
aI00
aI00
aI00
aI00
aI00
aI01
aI01
aI01
aI01
aI01
aI00
aI01
aI01
aI01
aI01
aI01
aI00
aI00
aI00
aI00
aI01
aI00
aI00
aI00
aa(lp2525
I00
aI00
aI00
aI00
aI00
aI00
aI00
aI00
aI00
aI00
aI00
aI00
aI00
aI00
aI00
aI00
aI00
aI00
aI00
aI00
aI00
aI00
aI00
aI00
aI00
aI00
aI00
aa(lp2526
I00
aI00
aI00
aI00
aI00
aI00
aI00
aI00
aI00
aI00
aI00
aI00
aI00
aI00
aI00
aI00
aI00
aI00
aI00
aI00
aI00
aI00
aI00
aI00
aI00
aI00
aI00
aa(lp2527
I00
aI00
aI00
aI01
aI00
aI00
aI00
aI00
aI01
aI01
aI01
aI01
aI01
aI00
aI01
aI01
aI01
aI01
aI01
aI00
aI00
aI00
aI00
aI00
aI00
aI00
aI00
aa(lp2528
I00
aI00
aI00
aI01
aI00
aI00
aI00
aI00
aI00
aI00
aI00
aI00
aI00
aI00
aI00
aI00
aI00
aI00
aI01
aI00
aI00
aI01
aI00
aI00
aI00
aI00
aI00
aa(lp2529
I00
aI00
aI00
aI00
aI00
aI00
aI00
aI00
aI00
aI00
aI00
aI01
aI01
aI01
aI01
aI01
aI01
aI01
aI01
aI01
aI01
aI00
aI00
aI00
aI00
aI00
aI00
aa(lp2530
I00
aI00
aI00
aI00
aI00
aI00
aI00
aI00
aI00
aI00
aI00
aI01
aI00
aI01
aI00
aI00
aI00
aI00
aI00
aI00
aI00
aI01
aI00
aI00
aI00
aI00
aI00
aa(lp2531
I00
aI00
aI00
aI01
aI00
aI00
aI00
aI00
aI01
aI01
aI01
aI01
aI00
aI01
aI00
aI00
aI00
aI00
aI00
aI00
aI01
aI00
aI00
aI00
aI00
aI00
aI00
aa(lp2532
I00
aI00
aI00
aI01
aI00
aI00
aI00
aI00
aI01
aI00
aI00
aI00
aI00
aI01
aI00
aI00
aI00
aI00
aI00
aI00
aI00
aI01
aI00
aI00
aI00
aI00
aI00
aa(lp2533
I00
aI00
aI00
aI01
aI00
aI00
aI00
aI00
aI01
aI01
aI00
aI01
aI01
aI01
aI01
aI01
aI01
aI01
aI01
aI01
aI01
aI00
aI00
aI00
aI00
aI00
aI00
aa(lp2534
I00
aI00
aI00
aI01
aI00
aI00
aI00
aI00
aI00
aI01
aI00
aI01
aI01
aI01
aI01
aI00
aI00
aI00
aI00
aI00
aI00
aI00
aI00
aI00
aI00
aI00
aI00
aa(lp2535
I00
aI01
aI01
aI01
aI00
aI00
aI00
aI00
aI01
aI01
aI01
aI01
aI01
aI01
aI01
aI00
aI00
aI00
aI00
aI00
aI00
aI00
aI00
aI00
aI00
aI00
aI00
aa(lp2536
I00
aI00
aI00
aI00
aI00
aI00
aI00
aI00
aI00
aI00
aI00
aI00
aI00
aI00
aI00
aI00
aI00
aI00
aI00
aI00
aI00
aI00
aI00
aI00
aI00
aI00
aI00
aasg54
I27
sbsg55
(lp2537
(I00
(I1
I20
tp2538
tp2539
a(I00
(I20
I6
tp2540
tp2541
a(I00
(I1
I1
tp2542
tp2543
a(I00
(I20
I25
tp2544
tp2545
asg54
I27
sg30
I22
sg65
(igame
Grid
p2546
(dp2547
g29
I30
sg30
I22
sg15
(lp2548
(lp2549
I01
aI01
aI01
aI01
aI01
aI01
aI01
aI01
aI01
aI01
aI01
aI01
aI01
aI01
aI01
aI01
aI01
aI01
aI01
aI01
aI01
aI01
aI01
aI01
aI01
aI01
aI01
aa(lp2550
I01
aI00
aI00
aI00
aI00
aI00
aI00
aI00
aI00
aI00
aI00
aI01
aI00
aI00
aI00
aI00
aI00
aI00
aI00
aI00
aI00
aI00
aI00
aI00
aI00
aI00
aI01
aa(lp2551
I01
aI00
aI01
aI01
aI01
aI01
aI01
aI01
aI00
aI01
aI01
aI01
aI00
aI00
aI00
aI00
aI01
aI00
aI01
aI01
aI00
aI01
aI01
aI00
aI01
aI00
aI01
aa(lp2552
I01
aI00
aI01
aI00
aI00
aI00
aI00
aI00
aI00
aI00
aI00
aI00
aI00
aI00
aI00
aI00
aI01
aI00
aI00
aI01
aI00
aI00
aI01
aI00
aI01
aI00
aI01
aa(lp2553
I01
aI00
aI01
aI00
aI01
aI00
aI00
aI01
aI01
aI01
aI01
aI01
aI01
aI00
aI01
aI01
aI01
aI01
aI00
aI01
aI01
aI00
aI01
aI00
aI01
aI00
aI01
aa(lp2554
I01
aI00
aI01
aI00
aI01
aI00
aI00
aI00
aI00
aI00
aI00
aI00
aI01
aI00
aI01
aI00
aI00
aI00
aI00
aI00
aI00
aI00
aI01
aI00
aI00
aI00
aI01
aa(lp2555
I01
aI00
aI01
aI00
aI01
aI00
aI00
aI01
aI01
aI01
aI01
aI01
aI01
aI00
aI01
aI00
aI01
aI01
aI01
aI01
aI01
aI00
aI01
aI01
aI01
aI00
aI01
aa(lp2556
I01
aI00
aI01
aI00
aI00
aI00
aI00
aI00
aI00
aI00
aI00
aI00
aI00
aI00
aI00
aI00
aI00
aI00
aI00
aI00
aI00
aI00
aI01
aI01
aI01
aI00
aI01
aa(lp2557
I01
aI00
aI01
aI00
aI01
aI00
aI01
aI01
aI00
aI01
aI01
aI01
aI01
aI00
aI01
aI01
aI01
aI01
aI01
aI01
aI01
aI00
aI01
aI00
aI01
aI00
aI01
aa(lp2558
I01
aI00
aI01
aI00
aI01
aI00
aI01
aI01
aI00
aI00
aI00
aI00
aI00
aI00
aI00
aI00
aI00
aI00
aI00
aI01
aI00
aI00
aI01
aI00
aI01
aI00
aI01
aa(lp2559
I01
aI00
aI01
aI00
aI01
aI00
aI00
aI01
aI00
aI01
aI00
aI00
aI01
aI01
aI01
aI00
aI01
aI01
aI00
aI01
aI00
aI01
aI01
aI00
aI01
aI00
aI01
aa(lp2560
I01
aI00
aI01
aI00
aI01
aI01
aI00
aI01
aI00
aI01
aI01
aI00
aI01
aI01
aI01
aI00
aI00
aI01
aI00
aI01
aI00
aI00
aI01
aI00
aI01
aI00
aI01
aa(lp2561
I01
aI00
aI01
aI00
aI01
aI00
aI00
aI01
aI00
aI00
aI00
aI00
aI00
aI00
aI00
aI00
aI00
aI00
aI00
aI01
aI01
aI00
aI01
aI00
aI01
aI00
aI01
aa(lp2562
I01
aI00
aI01
aI00
aI01
aI00
aI01
aI01
aI01
aI01
aI01
aI01
aI01
aI00
aI01
aI01
aI01
aI01
aI00
aI01
aI01
aI00
aI01
aI00
aI01
aI00
aI01
aa(lp2563
I01
aI00
aI01
aI01
aI01
aI00
aI00
aI00
aI00
aI00
aI00
aI00
aI00
aI00
aI00
aI00
aI00
aI00
aI00
aI00
aI00
aI00
aI00
aI00
aI01
aI00
aI01
aa(lp2564
I01
aI00
aI01
aI01
aI01
aI00
aI01
aI01
aI01
aI01
aI01
aI00
aI01
aI00
aI01
aI01
aI01
aI01
aI01
aI01
aI00
aI00
aI01
aI00
aI01
aI00
aI01
aa(lp2565
I01
aI00
aI00
aI00
aI01
aI00
aI00
aI00
aI00
aI00
aI00
aI00
aI01
aI00
aI01
aI00
aI00
aI00
aI00
aI00
aI00
aI00
aI01
aI00
aI01
aI00
aI01
aa(lp2566
I01
aI00
aI01
aI00
aI01
aI00
aI01
aI01
aI00
aI01
aI01
aI01
aI01
aI00
aI01
aI01
aI01
aI01
aI01
aI01
aI00
aI00
aI01
aI00
aI01
aI00
aI01
aa(lp2567
I01
aI00
aI01
aI00
aI01
aI00
aI00
aI01
aI00
aI00
aI01
aI00
aI00
aI00
aI00
aI00
aI00
aI00
aI00
aI00
aI00
aI00
aI00
aI00
aI01
aI00
aI01
aa(lp2568
I01
aI00
aI01
aI00
aI01
aI01
aI00
aI01
aI01
aI00
aI01
aI00
aI00
aI00
aI00
aI01
aI01
aI01
aI00
aI01
aI01
aI01
aI01
aI01
aI01
aI00
aI01
aa(lp2569
I01
aI00
aI00
aI00
aI00
aI00
aI00
aI00
aI00
aI00
aI00
aI00
aI00
aI00
aI00
aI01
aI00
aI00
aI00
aI00
aI00
aI00
aI00
aI00
aI00
aI00
aI01
aa(lp2570
I01
aI01
aI01
aI01
aI01
aI01
aI01
aI01
aI01
aI01
aI01
aI01
aI01
aI01
aI01
aI01
aI01
aI01
aI01
aI01
aI01
aI01
aI01
aI01
aI01
aI01
aI01
aasg54
I27
sbsg91
(lp2571
S'%%%%%%%%%%%%%%%%%%%%%%'
p2572
aS'%.                  4%'
p2573
aS'%.%%% %%%%%%%%%%%%%% %'
p2574
aS'%.....%%..         % %'
p2575
aS'% %%%%%%%%%%%% %%% % %'
p2576
aS'% %       %  . . . % %'
p2577
aS'%1  % % %   %%. . .% %'
p2578
aS'% %%% % %%%%%%.% %.% %'
p2579
aS'%.%...% %.  ...% %.  %'
p2580
aS'%...%.% %.%%.%.% %.% %'
p2581
aS'%.%%%.% %.% .%.% %.% %'
p2582
aS'%...%...%.  .%.% %.%%%'
p2583
aS'%...%%%.%.%%.%.%%%...%'
p2584
aS'%.......  %%  .......%'
p2585
aS'%...%%%.%.%%.%.%%%...%'
p2586
aS'%%%.% %.%.  .%...%...%'
p2587
aS'% %.% %.%. %.% %.%%%.%'
p2588
aS'% %.% %.%.%%.% %.%...%'
p2589
aS'%  .% %...  .% %...%.%'
p2590
aS'% %.% %.%%%%%% % %%% %'
p2591
aS'% %. . .%%   % % %  2%'
p2592
aS'% % . . .  %       % %'
p2593
aS'% % %%% %%%%%%%%%%%% %'
p2594
aS'% %         ..%%.....%'
p2595
aS'% %%%%%%%%%%%%%% %%%.%'
p2596
aS'%3                  .%'
p2597
aS'%%%%%%%%%%%%%%%%%%%%%%'
p2598
asbsg26
(lp2599
(lp2600
NaNaNaNaNaNaNaNaNaNaNaNaNaNaNaNaNaNaNaNaNaNaNaNaNaNaNaa(lp2601
NaNaNaNaNaNaNaNaNaNaNaNaI1238
aI1239
aI1240
aI1241
aI1242
aI1243
aI1244
aNaNaNaNaI1245
aI1246
aI1247
aNaa(lp2602
NaNaNaNaNaNaNaNaNaNaNaNaI1248
aI1249
aI1250
aI1251
aNaI1252
aNaNaNaNaNaI1253
aNaNaNaa(lp2603
NaNaNaNaNaNaI1254
aI1255
aI1256
aI1257
aI1258
aI1259
aI1260
aI1261
aI1262
aI1263
aNaI1264
aI1265
aNaNaNaNaI1266
aNaNaNaa(lp2604
NaNaNaNaNaI1267
aNaNaNaNaNaNaNaI1268
aNaNaNaNaI1269
aNaNaNaNaI1270
aNaNaNaa(lp2605
NaNaNaNaNaNaI1271
aNaNaNaNaNaNaI1272
aNaI1273
aI1274
aI1275
aI1276
aNaNaNaNaI1277
aNaNaNaa(lp2606
NaNaNaNaNaI1278
aNaNaNaNaNaNaNaI1279
aNaI1280
aNaNaNaNaNaNaNaNaNaNaNaa(lp2607
NaNaNaNaNaNaI1281
aI1282
aI1283
aI1284
aI1285
aI1286
aI1287
aI1288
aI1289
aI1290
aNaNaNaNaNaNaNaNaNaNaNaa(lp2608
NaNaNaNaNaI1291
aNaNaI1292
aNaNaNaNaNaNaNaNaNaNaNaNaNaNaI1293
aNaNaNaa(lp2609
NaNaNaNaNaNaNaNaI1294
aI1295
aI1296
aI1297
aI1298
aNaI1299
aI1300
aI1301
aI1302
aI1303
aNaNaNaNaI1304
aNaNaNaa(lp2610
NaNaNaNaNaNaNaNaNaNaNaNaNaNaNaNaNaNaNaNaNaNaNaNaNaNaNaa(lp2611
NaNaNaNaNaNaNaNaNaNaNaNaNaNaNaNaNaNaNaNaNaNaNaNaNaNaNaa(lp2612
NaNaNaI1305
aNaNaNaNaI1306
aI1307
aI1308
aI1309
aI1310
aNaI1311
aI1312
aI1313
aI1314
aI1315
aNaNaNaNaNaNaNaNaa(lp2613
NaNaNaI1316
aNaNaNaNaNaNaNaNaNaNaNaNaNaNaI1317
aNaNaI1318
aNaNaNaNaNaa(lp2614
NaNaNaNaNaNaNaNaNaNaNaI1319
aI1320
aI1321
aI1322
aI1323
aI1324
aI1325
aI1326
aI1327
aI1328
aNaNaNaNaNaNaa(lp2615
NaNaNaNaNaNaNaNaNaNaNaI1329
aNaI1330
aNaNaNaNaNaNaNaI1331
aNaNaNaNaNaa(lp2616
NaNaNaI1332
aNaNaNaNaI1333
aI1334
aI1335
aI1336
aNaI1337
aNaNaNaNaNaNaI1338
aNaNaNaNaNaNaa(lp2617
NaNaNaI1339
aNaNaNaNaI1340
aNaNaNaNaI1341
aNaNaNaNaNaNaNaI1342
aNaNaNaNaNaa(lp2618
NaNaNaI1343
aNaNaNaNaI1344
aI1345
aNaI1346
aI1347
aI1348
aI1349
aI1350
aI1351
aI1352
aI1353
aI1354
aI1355
aNaNaNaNaNaNaa(lp2619
NaNaNaI1356
aNaNaNaNaNaI1357
aNaI1358
aI1359
aI1360
aI1361
aNaNaNaNaNaNaNaNaNaNaNaNaa(lp2620
NaI1362
aI1363
aI1364
aNaNaNaNaI1365
aI1366
aI1367
aI1368
aI1369
aI1370
aI1371
aNaNaNaNaNaNaNaNaNaNaNaNaa(lp2621
NaNaNaNaNaNaNaNaNaNaNaNaNaNaNaNaNaNaNaNaNaNaNaNaNaNaNaasS'have_window'
p2622
I0
sS'currentGhostImages'
p2623
(dp2624
sS'zoom'
p2625
F1
sS'agentImages'
p2626
(lp2627
((igame
AgentState
(dp2628
g150
(igame
Configuration
p2629
(dp2630
g153
g154
sg155
g2538
sbsg156
(igame
Configuration
p2631
(dp2632
g153
g159
sg155
(F2
F20
tp2633
sbsg161
I00
sg162
I0
sb(lp2634
I1372
aI1373
aI1374
aI1375
aI1376
atp2635
a((igame
AgentState
(dp2636
g150
(igame
Configuration
p2637
(dp2638
g153
g154
sg155
g2540
sbsg156
g2637
sg161
I00
sg162
I0
sb(lp2639
I1377
aI1378
aI1379
aI1380
aI1381
atp2640
a((igame
AgentState
(dp2641
g150
(igame
Configuration
p2642
(dp2643
g153
g154
sg155
g2542
sbsg156
g2642
sg161
I00
sg162
I0
sb(lp2644
I1382
aI1383
aI1384
aI1385
aI1386
atp2645
a((igame
AgentState
(dp2646
g150
(igame
Configuration
p2647
(dp2648
g153
g154
sg155
g2544
sbsg156
g2647
sg161
I00
sg162
I0
sb(lp2649
I1387
aI1388
aI1389
aI1390
aI1391
atp2650
asg54
I27
sg30
I22
sS'currentState'
p2651
g2509
sg23
(dp2652
sS'isBlue'
p2653
I00
sS'infoPane'
p2654
(igraphicsDisplay
InfoPane
p2655
(dp2656
g2508
F30
sg54
I35
sg30
F660
sS'base'
p2657
F840
sS'fontSize'
p2658
I24
sS'scoreText'
p2659
I1
sS'textColor'
p2660
S'#ffff3d'
p2661
sbsbsb.