(igame
Game
p1
(dp2
S'numMoves'
p3
I0
sS'rules'
p4
(icapture
CaptureRules
p5
(dp6
bsS'length'
p7
I3000
sS'state'
p8
(icapture
GameState
p9
(dp10
S'teams'
p11
(lp12
I01
aI00
aI01
aI00
asS'agentDistances'
p13
(lp14
sS'data'
p15
(igame
GameStateData
p16
(dp17
S'_foodEaten'
p18
(I16
I11
tp19
sS'layout'
p20
(ilayout
Layout
p21
(dp22
S'capsules'
p23
(lp24
sS'numGhosts'
p25
I4
sS'food'
p26
(igame
Grid
p27
(dp28
S'CELLS_PER_INT'
p29
I30
sS'width'
p30
I22
sg15
(lp31
(lp32
I00
aI00
aI00
aI00
aI00
aI00
aI00
aI00
aI00
aI00
aI00
aI00
aI00
aI00
aI00
aI00
aI00
aI00
aI00
aI00
aI00
aI00
aI00
aI00
aI00
aI00
aI00
aa(lp33
I00
aI00
aI00
aI00
aI00
aI00
aI00
aI00
aI00
aI00
aI00
aI00
aI01
aI01
aI01
aI01
aI01
aI01
aI01
aI00
aI00
aI00
aI00
aI01
aI01
aI01
aI00
aa(lp34
I00
aI00
aI00
aI00
aI00
aI00
aI00
aI00
aI00
aI00
aI00
aI00
aI01
aI01
aI01
aI01
aI00
aI01
aI00
aI00
aI00
aI00
aI00
aI01
aI00
aI00
aI00
aa(lp35
I00
aI00
aI00
aI00
aI00
aI00
aI01
aI01
aI01
aI01
aI01
aI01
aI01
aI01
aI01
aI01
aI00
aI01
aI01
aI00
aI00
aI00
aI00
aI01
aI00
aI00
aI00
aa(lp36
I00
aI00
aI00
aI00
aI00
aI01
aI00
aI00
aI00
aI00
aI00
aI00
aI00
aI01
aI00
aI00
aI00
aI00
aI01
aI00
aI00
aI00
aI00
aI01
aI00
aI00
aI00
aa(lp37
I00
aI00
aI00
aI00
aI00
aI00
aI01
aI00
aI00
aI00
aI00
aI00
aI00
aI01
aI00
aI01
aI01
aI01
aI01
aI00
aI00
aI00
aI00
aI01
aI00
aI00
aI00
aa(lp38
I00
aI00
aI00
aI00
aI00
aI01
aI00
aI00
aI00
aI00
aI00
aI00
aI00
aI01
aI00
aI01
aI00
aI00
aI00
aI00
aI00
aI00
aI00
aI00
aI00
aI00
aI00
aa(lp39
I00
aI00
aI00
aI00
aI00
aI00
aI01
aI01
aI01
aI01
aI01
aI01
aI01
aI01
aI01
aI01
aI00
aI00
aI00
aI00
aI00
aI00
aI00
aI00
aI00
aI00
aI00
aa(lp40
I00
aI00
aI00
aI00
aI00
aI01
aI00
aI00
aI01
aI00
aI00
aI00
aI00
aI00
aI00
aI00
aI00
aI00
aI00
aI00
aI00
aI00
aI00
aI01
aI00
aI00
aI00
aa(lp41
I00
aI00
aI00
aI00
aI00
aI00
aI00
aI00
aI01
aI01
aI01
aI01
aI01
aI00
aI01
aI01
aI01
aI01
aI01
aI00
aI00
aI00
aI00
aI01
aI00
aI00
aI00
aa(lp42
I00
aI00
aI00
aI00
aI00
aI00
aI00
aI00
aI00
aI00
aI00
aI00
aI00
aI00
aI00
aI00
aI00
aI00
aI00
aI00
aI00
aI00
aI00
aI00
aI00
aI00
aI00
aa(lp43
I00
aI00
aI00
aI00
aI00
aI00
aI00
aI00
aI00
aI00
aI00
aI00
aI00
aI00
aI00
aI00
aI00
aI00
aI00
aI00
aI00
aI00
aI00
aI00
aI00
aI00
aI00
aa(lp44
I00
aI00
aI00
aI01
aI00
aI00
aI00
aI00
aI01
aI01
aI01
aI01
aI01
aI00
aI01
aI01
aI01
aI01
aI01
aI00
aI00
aI00
aI00
aI00
aI00
aI00
aI00
aa(lp45
I00
aI00
aI00
aI01
aI00
aI00
aI00
aI00
aI00
aI00
aI00
aI00
aI00
aI00
aI00
aI00
aI00
aI00
aI01
aI00
aI00
aI01
aI00
aI00
aI00
aI00
aI00
aa(lp46
I00
aI00
aI00
aI00
aI00
aI00
aI00
aI00
aI00
aI00
aI00
aI01
aI01
aI01
aI01
aI01
aI01
aI01
aI01
aI01
aI01
aI00
aI00
aI00
aI00
aI00
aI00
aa(lp47
I00
aI00
aI00
aI00
aI00
aI00
aI00
aI00
aI00
aI00
aI00
aI01
aI00
aI01
aI00
aI00
aI00
aI00
aI00
aI00
aI00
aI01
aI00
aI00
aI00
aI00
aI00
aa(lp48
I00
aI00
aI00
aI01
aI00
aI00
aI00
aI00
aI01
aI01
aI01
aI01
aI00
aI01
aI00
aI00
aI00
aI00
aI00
aI00
aI01
aI00
aI00
aI00
aI00
aI00
aI00
aa(lp49
I00
aI00
aI00
aI01
aI00
aI00
aI00
aI00
aI01
aI00
aI00
aI00
aI00
aI01
aI00
aI00
aI00
aI00
aI00
aI00
aI00
aI01
aI00
aI00
aI00
aI00
aI00
aa(lp50
I00
aI00
aI00
aI01
aI00
aI00
aI00
aI00
aI01
aI01
aI00
aI01
aI01
aI01
aI01
aI01
aI01
aI01
aI01
aI01
aI01
aI00
aI00
aI00
aI00
aI00
aI00
aa(lp51
I00
aI00
aI00
aI01
aI00
aI00
aI00
aI00
aI00
aI01
aI00
aI01
aI01
aI01
aI01
aI00
aI00
aI00
aI00
aI00
aI00
aI00
aI00
aI00
aI00
aI00
aI00
aa(lp52
I00
aI01
aI01
aI01
aI00
aI00
aI00
aI00
aI01
aI01
aI01
aI01
aI01
aI01
aI01
aI00
aI00
aI00
aI00
aI00
aI00
aI00
aI00
aI00
aI00
aI00
aI00
aa(lp53
I00
aI00
aI00
aI00
aI00
aI00
aI00
aI00
aI00
aI00
aI00
aI00
aI00
aI00
aI00
aI00
aI00
aI00
aI00
aI00
aI00
aI00
aI00
aI00
aI00
aI00
aI00
aasS'height'
p54
I27
sbsS'agentPositions'
p55
(lp56
(I00
(I1
I20
tp57
tp58
a(I00
(I20
I6
tp59
tp60
a(I00
(I1
I1
tp61
tp62
a(I00
(I20
I25
tp63
tp64
asg54
I27
sg30
I22
sS'walls'
p65
(igame
Grid
p66
(dp67
g29
I30
sg30
I22
sg15
(lp68
(lp69
I01
aI01
aI01
aI01
aI01
aI01
aI01
aI01
aI01
aI01
aI01
aI01
aI01
aI01
aI01
aI01
aI01
aI01
aI01
aI01
aI01
aI01
aI01
aI01
aI01
aI01
aI01
aa(lp70
I01
aI00
aI00
aI00
aI00
aI00
aI00
aI00
aI00
aI00
aI00
aI01
aI00
aI00
aI00
aI00
aI00
aI00
aI00
aI00
aI00
aI00
aI00
aI00
aI00
aI00
aI01
aa(lp71
I01
aI00
aI01
aI01
aI01
aI01
aI01
aI01
aI00
aI01
aI01
aI01
aI00
aI00
aI00
aI00
aI01
aI00
aI01
aI01
aI00
aI01
aI01
aI00
aI01
aI00
aI01
aa(lp72
I01
aI00
aI01
aI00
aI00
aI00
aI00
aI00
aI00
aI00
aI00
aI00
aI00
aI00
aI00
aI00
aI01
aI00
aI00
aI01
aI00
aI00
aI01
aI00
aI01
aI00
aI01
aa(lp73
I01
aI00
aI01
aI00
aI01
aI00
aI00
aI01
aI01
aI01
aI01
aI01
aI01
aI00
aI01
aI01
aI01
aI01
aI00
aI01
aI01
aI00
aI01
aI00
aI01
aI00
aI01
aa(lp74
I01
aI00
aI01
aI00
aI01
aI00
aI00
aI00
aI00
aI00
aI00
aI00
aI01
aI00
aI01
aI00
aI00
aI00
aI00
aI00
aI00
aI00
aI01
aI00
aI00
aI00
aI01
aa(lp75
I01
aI00
aI01
aI00
aI01
aI00
aI00
aI01
aI01
aI01
aI01
aI01
aI01
aI00
aI01
aI00
aI01
aI01
aI01
aI01
aI01
aI00
aI01
aI01
aI01
aI00
aI01
aa(lp76
I01
aI00
aI01
aI00
aI00
aI00
aI00
aI00
aI00
aI00
aI00
aI00
aI00
aI00
aI00
aI00
aI00
aI00
aI00
aI00
aI00
aI00
aI01
aI01
aI01
aI00
aI01
aa(lp77
I01
aI00
aI01
aI00
aI01
aI00
aI01
aI01
aI00
aI01
aI01
aI01
aI01
aI00
aI01
aI01
aI01
aI01
aI01
aI01
aI01
aI00
aI01
aI00
aI01
aI00
aI01
aa(lp78
I01
aI00
aI01
aI00
aI01
aI00
aI01
aI01
aI00
aI00
aI00
aI00
aI00
aI00
aI00
aI00
aI00
aI00
aI00
aI01
aI00
aI00
aI01
aI00
aI01
aI00
aI01
aa(lp79
I01
aI00
aI01
aI00
aI01
aI00
aI00
aI01
aI00
aI01
aI00
aI00
aI01
aI01
aI01
aI00
aI01
aI01
aI00
aI01
aI00
aI01
aI01
aI00
aI01
aI00
aI01
aa(lp80
I01
aI00
aI01
aI00
aI01
aI01
aI00
aI01
aI00
aI01
aI01
aI00
aI01
aI01
aI01
aI00
aI00
aI01
aI00
aI01
aI00
aI00
aI01
aI00
aI01
aI00
aI01
aa(lp81
I01
aI00
aI01
aI00
aI01
aI00
aI00
aI01
aI00
aI00
aI00
aI00
aI00
aI00
aI00
aI00
aI00
aI00
aI00
aI01
aI01
aI00
aI01
aI00
aI01
aI00
aI01
aa(lp82
I01
aI00
aI01
aI00
aI01
aI00
aI01
aI01
aI01
aI01
aI01
aI01
aI01
aI00
aI01
aI01
aI01
aI01
aI00
aI01
aI01
aI00
aI01
aI00
aI01
aI00
aI01
aa(lp83
I01
aI00
aI01
aI01
aI01
aI00
aI00
aI00
aI00
aI00
aI00
aI00
aI00
aI00
aI00
aI00
aI00
aI00
aI00
aI00
aI00
aI00
aI00
aI00
aI01
aI00
aI01
aa(lp84
I01
aI00
aI01
aI01
aI01
aI00
aI01
aI01
aI01
aI01
aI01
aI00
aI01
aI00
aI01
aI01
aI01
aI01
aI01
aI01
aI00
aI00
aI01
aI00
aI01
aI00
aI01
aa(lp85
I01
aI00
aI00
aI00
aI01
aI00
aI00
aI00
aI00
aI00
aI00
aI00
aI01
aI00
aI01
aI00
aI00
aI00
aI00
aI00
aI00
aI00
aI01
aI00
aI01
aI00
aI01
aa(lp86
I01
aI00
aI01
aI00
aI01
aI00
aI01
aI01
aI00
aI01
aI01
aI01
aI01
aI00
aI01
aI01
aI01
aI01
aI01
aI01
aI00
aI00
aI01
aI00
aI01
aI00
aI01
aa(lp87
I01
aI00
aI01
aI00
aI01
aI00
aI00
aI01
aI00
aI00
aI01
aI00
aI00
aI00
aI00
aI00
aI00
aI00
aI00
aI00
aI00
aI00
aI00
aI00
aI01
aI00
aI01
aa(lp88
I01
aI00
aI01
aI00
aI01
aI01
aI00
aI01
aI01
aI00
aI01
aI00
aI00
aI00
aI00
aI01
aI01
aI01
aI00
aI01
aI01
aI01
aI01
aI01
aI01
aI00
aI01
aa(lp89
I01
aI00
aI00
aI00
aI00
aI00
aI00
aI00
aI00
aI00
aI00
aI00
aI00
aI00
aI00
aI01
aI00
aI00
aI00
aI00
aI00
aI00
aI00
aI00
aI00
aI00
aI01
aa(lp90
I01
aI01
aI01
aI01
aI01
aI01
aI01
aI01
aI01
aI01
aI01
aI01
aI01
aI01
aI01
aI01
aI01
aI01
aI01
aI01
aI01
aI01
aI01
aI01
aI01
aI01
aI01
aasg54
I27
sbsS'layoutText'
p91
(lp92
S'%%%%%%%%%%%%%%%%%%%%%%'
p93
aS'%.                  4%'
p94
aS'%.%%% %%%%%%%%%%%%%% %'
p95
aS'%.....%%..         % %'
p96
aS'% %%%%%%%%%%%% %%% % %'
p97
aS'% %       %  . . . % %'
p98
aS'%1  % % %   %%. . .% %'
p99
aS'% %%% % %%%%%%.% %.% %'
p100
aS'%.%...% %.  ...% %.  %'
p101
aS'%...%.% %.%%.%.% %.% %'
p102
aS'%.%%%.% %.% .%.% %.% %'
p103
aS'%...%...%.  .%.% %.%%%'
p104
aS'%...%%%.%.%%.%.%%%...%'
p105
aS'%.......  %%  .......%'
p106
aS'%...%%%.%.%%.%.%%%...%'
p107
aS'%%%.% %.%.  .%...%...%'
p108
aS'% %.% %.%. %.% %.%%%.%'
p109
aS'% %.% %.%.%%.% %.%...%'
p110
aS'%  .% %...  .% %...%.%'
p111
aS'% %.% %.%%%%%% % %%% %'
p112
aS'% %. . .%%   % % %  2%'
p113
aS'% % . . .  %       % %'
p114
aS'% % %%% %%%%%%%%%%%% %'
p115
aS'% %         ..%%.....%'
p116
aS'% %%%%%%%%%%%%%% %%%.%'
p117
aS'%3                  .%'
p118
aS'%%%%%%%%%%%%%%%%%%%%%%'
p119
asbsg26
(igame
Grid
p120
(dp121
g29
I30
sg30
I22
sg15
(lp122
(lp123
I00
aI00
aI00
aI00
aI00
aI00
aI00
aI00
aI00
aI00
aI00
aI00
aI00
aI00
aI00
aI00
aI00
aI00
aI00
aI00
aI00
aI00
aI00
aI00
aI00
aI00
aI00
aa(lp124
I00
aI00
aI00
aI00
aI00
aI00
aI00
aI00
aI00
aI00
aI00
aI00
aI01
aI00
aI00
aI01
aI01
aI00
aI00
aI00
aI00
aI00
aI00
aI00
aI00
aI00
aI00
aa(lp125
I00
aI00
aI00
aI00
aI00
aI00
aI00
aI00
aI00
aI00
aI00
aI00
aI01
aI00
aI00
aI01
aI00
aI00
aI00
aI00
aI00
aI00
aI00
aI00
aI00
aI00
aI00
aa(lp126
I00
aI00
aI00
aI00
aI00
aI00
aI00
aI00
aI00
aI00
aI00
aI00
aI00
aI00
aI01
aI01
aI00
aI00
aI00
aI00
aI00
aI00
aI00
aI00
aI00
aI00
aI00
aa(lp127
I00
aI00
aI00
aI00
aI00
aI00
aI00
aI00
aI00
aI00
aI00
aI00
aI00
aI01
aI00
aI00
aI00
aI00
aI00
aI00
aI00
aI00
aI00
aI00
aI00
aI00
aI00
aa(lp128
I00
aI00
aI00
aI00
aI00
aI00
aI01
aI00
aI00
aI00
aI00
aI00
aI00
aI01
aI00
aI00
aI00
aI00
aI00
aI00
aI00
aI00
aI00
aI00
aI00
aI00
aI00
aa(lp129
I00
aI00
aI00
aI00
aI00
aI00
aI00
aI00
aI00
aI00
aI00
aI00
aI00
aI01
aI00
aI00
aI00
aI00
aI00
aI00
aI00
aI00
aI00
aI00
aI00
aI00
aI00
aa(lp130
I00
aI00
aI00
aI00
aI00
aI00
aI00
aI00
aI00
aI00
aI00
aI00
aI00
aI00
aI00
aI00
aI00
aI00
aI00
aI00
aI00
aI00
aI00
aI00
aI00
aI00
aI00
aa(lp131
I00
aI00
aI00
aI00
aI00
aI00
aI00
aI00
aI00
aI00
aI00
aI00
aI00
aI00
aI00
aI00
aI00
aI00
aI00
aI00
aI00
aI00
aI00
aI00
aI00
aI00
aI00
aa(lp132
I00
aI00
aI00
aI00
aI00
aI00
aI00
aI00
aI00
aI00
aI00
aI00
aI00
aI00
aI00
aI00
aI00
aI00
aI00
aI00
aI00
aI00
aI00
aI00
aI00
aI00
aI00
aa(lp133
I00
aI00
aI00
aI00
aI00
aI00
aI00
aI00
aI00
aI00
aI00
aI00
aI00
aI00
aI00
aI00
aI00
aI00
aI00
aI00
aI00
aI00
aI00
aI00
aI00
aI00
aI00
aa(lp134
I00
aI00
aI00
aI00
aI00
aI00
aI00
aI00
aI00
aI00
aI00
aI00
aI00
aI00
aI00
aI00
aI00
aI00
aI00
aI00
aI00
aI00
aI00
aI00
aI00
aI00
aI00
aa(lp135
I00
aI00
aI00
aI00
aI00
aI00
aI00
aI00
aI00
aI00
aI00
aI00
aI00
aI00
aI00
aI00
aI00
aI00
aI00
aI00
aI00
aI00
aI00
aI00
aI00
aI00
aI00
aa(lp136
I00
aI00
aI00
aI00
aI00
aI00
aI00
aI00
aI00
aI00
aI00
aI00
aI00
aI00
aI00
aI00
aI00
aI00
aI00
aI00
aI00
aI00
aI00
aI00
aI00
aI00
aI00
aa(lp137
I00
aI00
aI00
aI00
aI00
aI00
aI00
aI00
aI00
aI00
aI00
aI00
aI00
aI00
aI00
aI00
aI00
aI00
aI00
aI00
aI00
aI00
aI00
aI00
aI00
aI00
aI00
aa(lp138
I00
aI00
aI00
aI00
aI00
aI00
aI00
aI00
aI00
aI00
aI00
aI00
aI00
aI00
aI00
aI00
aI00
aI00
aI00
aI00
aI00
aI00
aI00
aI00
aI00
aI00
aI00
aa(lp139
I00
aI00
aI00
aI00
aI00
aI00
aI00
aI00
aI00
aI00
aI00
aI00
aI00
aI00
aI00
aI00
aI00
aI00
aI00
aI00
aI00
aI00
aI00
aI00
aI00
aI00
aI00
aa(lp140
I00
aI00
aI00
aI00
aI00
aI00
aI00
aI00
aI00
aI00
aI00
aI00
aI00
aI00
aI00
aI00
aI00
aI00
aI00
aI00
aI00
aI00
aI00
aI00
aI00
aI00
aI00
aa(lp141
I00
aI00
aI00
aI00
aI00
aI00
aI00
aI00
aI00
aI00
aI00
aI00
aI00
aI00
aI00
aI00
aI00
aI00
aI00
aI00
aI00
aI00
aI00
aI00
aI00
aI00
aI00
aa(lp142
I00
aI00
aI00
aI00
aI00
aI00
aI00
aI00
aI00
aI00
aI00
aI00
aI00
aI00
aI00
aI00
aI00
aI00
aI00
aI00
aI00
aI00
aI00
aI00
aI00
aI00
aI00
aa(lp143
I00
aI00
aI00
aI00
aI00
aI00
aI00
aI00
aI00
aI00
aI00
aI00
aI00
aI00
aI00
aI00
aI00
aI00
aI00
aI00
aI00
aI00
aI00
aI00
aI00
aI00
aI00
aa(lp144
I00
aI00
aI00
aI00
aI00
aI00
aI00
aI00
aI00
aI00
aI00
aI00
aI00
aI00
aI00
aI00
aI00
aI00
aI00
aI00
aI00
aI00
aI00
aI00
aI00
aI00
aI00
aasg54
I27
sbsS'scoreChange'
p145
I1
sS'agentStates'
p146
(lp147
(igame
AgentState
p148
(dp149
S'start'
p150
(igame
Configuration
p151
(dp152
S'direction'
p153
S'Stop'
p154
sS'pos'
p155
g57
sbsS'configuration'
p156
(igame
Configuration
p157
(dp158
g153
S'West'
p159
sg155
(F9
F11
tp160
sbsS'isPacman'
p161
I00
sS'scaredTimer'
p162
I0
sba(igame
AgentState
p163
(dp164
g150
(igame
Configuration
p165
(dp166
g153
g154
sg155
g59
sbsg156
(igame
Configuration
p167
(dp168
g153
S'North'
p169
sg155
(F16
F6
tp170
sbsg161
I00
sg162
I0
sba(igame
AgentState
p171
(dp172
g150
(igame
Configuration
p173
(dp174
g153
g154
sg155
g61
sbsg156
(igame
Configuration
p175
(dp176
g153
g169
sg155
(F16
F11
tp177
sbsg161
I01
sg162
I0
sba(igame
AgentState
p178
(dp179
g150
(igame
Configuration
p180
(dp181
g153
g154
sg155
g63
sbsg156
g180
sg161
I00
sg162
I0
sbasS'_win'
p182
I01
sS'_eaten'
p183
(lp184
I00
aI00
aI00
aI00
asS'score'
p185
I11
sS'_agentMoved'
p186
I2
sS'_lose'
p187
I00
sg23
(lp188
sS'_capsuleEaten'
p189
NsbsS'redTeam'
p190
(lp191
I0
aI2
asS'blueTeam'
p192
(lp193
I1
aI3
asbsS'agents'
p194
(lp195
I0
aI1
aI2
aI3
asS'moveHistory'
p196
(lp197
(I0
S'East'
tp198
a(I1
S'North'
tp199
a(I2
S'East'
tp200
a(I3
S'South'
tp201
a(I0
S'East'
tp202
a(I1
S'North'
tp203
a(I2
S'East'
tp204
a(I3
S'South'
tp205
a(I0
S'North'
tp206
a(I1
S'North'
tp207
a(I2
S'East'
tp208
a(I3
S'South'
tp209
a(I0
S'East'
tp210
a(I1
S'West'
tp211
a(I2
S'East'
tp212
a(I3
S'South'
tp213
a(I0
S'East'
tp214
a(I1
S'West'
tp215
a(I2
S'East'
tp216
a(I3
S'South'
tp217
a(I0
S'East'
tp218
a(I1
S'South'
tp219
a(I2
S'East'
tp220
a(I3
S'South'
tp221
a(I0
S'East'
tp222
a(I1
S'West'
tp223
a(I2
S'East'
tp224
a(I3
S'South'
tp225
a(I0
S'East'
tp226
a(I1
S'West'
tp227
a(I2
S'East'
tp228
a(I3
S'West'
tp229
a(I0
S'East'
tp230
a(I1
S'North'
tp231
a(I2
S'East'
tp232
a(I3
S'West'
tp233
a(I0
S'South'
tp234
a(I1
S'North'
tp235
a(I2
S'East'
tp236
a(I3
S'North'
tp237
a(I0
S'East'
tp238
a(I1
S'North'
tp239
a(I2
S'East'
tp240
a(I3
S'North'
tp241
a(I0
S'East'
tp242
a(I1
S'West'
tp243
a(I2
S'East'
tp244
a(I3
S'North'
tp245
a(I0
S'North'
tp246
a(I1
S'West'
tp247
a(I2
S'East'
tp248
a(I3
S'North'
tp249
a(I0
S'North'
tp250
a(I1
S'North'
tp251
a(I2
S'East'
tp252
a(I3
S'North'
tp253
a(I0
S'East'
tp254
a(I1
S'North'
tp255
a(I2
S'East'
tp256
a(I3
S'West'
tp257
a(I0
S'East'
tp258
a(I1
S'North'
tp259
a(I2
S'East'
tp260
a(I3
S'West'
tp261
a(I0
S'East'
tp262
a(I1
S'North'
tp263
a(I2
S'East'
tp264
a(I3
S'West'
tp265
a(I0
S'East'
tp266
a(I1
S'North'
tp267
a(I2
S'East'
tp268
a(I3
S'West'
tp269
a(I0
S'East'
tp270
a(I1
S'North'
tp271
a(I2
S'East'
tp272
a(I3
S'South'
tp273
a(I0
S'East'
tp274
a(I1
S'North'
tp275
a(I2
S'East'
tp276
a(I3
S'South'
tp277
a(I0
S'West'
tp278
a(I1
S'North'
tp279
a(I2
S'North'
tp280
a(I3
S'East'
tp281
a(I0
S'East'
tp282
a(I1
S'North'
tp283
a(I2
S'North'
tp284
a(I3
S'South'
tp285
a(I0
S'East'
tp286
a(I1
S'East'
tp287
a(I2
S'North'
tp288
a(I3
S'West'
tp289
a(I0
S'North'
tp290
a(I1
S'East'
tp291
a(I2
S'North'
tp292
a(I3
S'South'
tp293
a(I0
S'East'
tp294
a(I1
S'East'
tp295
a(I2
S'East'
tp296
a(I3
S'South'
tp297
a(I0
S'East'
tp298
a(I1
S'East'
tp299
a(I2
S'East'
tp300
a(I3
S'South'
tp301
a(I0
S'East'
tp302
a(I1
S'South'
tp303
a(I2
S'East'
tp304
a(I3
S'South'
tp305
a(I0
S'East'
tp306
a(I1
S'South'
tp307
a(I2
S'East'
tp308
a(I3
S'South'
tp309
a(I0
S'East'
tp310
a(I1
S'South'
tp311
a(I2
S'East'
tp312
a(I3
S'South'
tp313
a(I0
S'East'
tp314
a(I1
S'South'
tp315
a(I2
S'East'
tp316
a(I3
S'South'
tp317
a(I0
S'South'
tp318
a(I1
S'South'
tp319
a(I2
S'East'
tp320
a(I3
S'West'
tp321
a(I0
S'East'
tp322
a(I1
S'South'
tp323
a(I2
S'East'
tp324
a(I3
S'West'
tp325
a(I0
S'East'
tp326
a(I1
S'South'
tp327
a(I2
S'South'
tp328
a(I3
S'South'
tp329
a(I0
S'North'
tp330
a(I1
S'East'
tp331
a(I2
S'South'
tp332
a(I3
S'South'
tp333
a(I0
S'North'
tp334
a(I1
S'South'
tp335
a(I2
S'South'
tp336
a(I3
S'South'
tp337
a(I0
S'East'
tp338
a(I1
S'East'
tp339
a(I2
S'South'
tp340
a(I3
S'South'
tp341
a(I0
S'East'
tp342
a(I1
S'South'
tp343
a(I2
S'North'
tp344
a(I3
S'South'
tp345
a(I0
S'East'
tp346
a(I1
S'South'
tp347
a(I2
S'North'
tp348
a(I3
S'West'
tp349
a(I0
S'East'
tp350
a(I1
S'South'
tp351
a(I2
S'North'
tp352
a(I3
S'West'
tp353
a(I0
S'East'
tp354
a(I1
S'South'
tp355
a(I2
S'North'
tp356
a(I3
S'West'
tp357
a(I0
S'East'
tp358
a(I1
S'South'
tp359
a(I2
S'North'
tp360
a(I3
S'West'
tp361
a(I0
S'South'
tp362
a(I1
S'South'
tp363
a(I2
S'North'
tp364
a(I3
S'West'
tp365
a(I0
S'South'
tp366
a(I1
S'South'
tp367
a(I2
S'North'
tp368
a(I3
S'West'
tp369
a(I0
S'South'
tp370
a(I1
S'South'
tp371
a(I2
S'North'
tp372
a(I3
S'West'
tp373
a(I0
S'South'
tp374
a(I1
S'South'
tp375
a(I2
S'North'
tp376
a(I3
S'West'
tp377
a(I0
S'South'
tp378
a(I1
S'West'
tp379
a(I2
S'North'
tp380
a(I3
S'North'
tp381
a(I0
S'South'
tp382
a(I1
S'West'
tp383
a(I2
S'North'
tp384
a(I3
S'North'
tp385
a(I0
S'West'
tp386
a(I1
S'West'
tp387
a(I2
S'North'
tp388
a(I3
S'North'
tp389
a(I0
S'West'
tp390
a(I1
S'West'
tp391
a(I2
S'North'
tp392
a(I3
S'North'
tp393
a(I0
S'West'
tp394
a(I1
S'South'
tp395
a(I2
S'North'
tp396
a(I3
S'North'
tp397
a(I0
S'West'
tp398
a(I1
S'South'
tp399
a(I2
S'East'
tp400
a(I3
S'North'
tp401
a(I0
S'South'
tp402
a(I1
S'East'
tp403
a(I2
S'East'
tp404
a(I3
S'North'
tp405
a(I0
S'South'
tp406
a(I1
S'East'
tp407
a(I2
S'South'
tp408
a(I3
S'North'
tp409
a(I0
S'South'
tp410
a(I1
S'East'
tp411
a(I2
S'South'
tp412
a(I3
S'North'
tp413
a(I0
S'South'
tp414
a(I1
S'East'
tp415
a(I2
S'East'
tp416
a(I3
S'North'
tp417
a(I0
S'South'
tp418
a(I1
S'North'
tp419
a(I2
S'East'
tp420
a(I3
S'North'
tp421
a(I0
S'South'
tp422
a(I1
S'North'
tp423
a(I2
S'East'
tp424
a(I3
S'North'
tp425
a(I0
S'South'
tp426
a(I1
S'North'
tp427
a(I2
S'East'
tp428
a(I3
S'North'
tp429
a(I0
S'South'
tp430
a(I1
S'North'
tp431
a(I2
S'North'
tp432
a(I3
S'North'
tp433
a(I0
S'South'
tp434
a(I1
S'North'
tp435
a(I2
S'North'
tp436
a(I3
S'West'
tp437
a(I0
S'South'
tp438
a(I1
S'North'
tp439
a(I2
S'East'
tp440
a(I3
S'West'
tp441
a(I0
S'South'
tp442
a(I1
S'North'
tp443
a(I2
S'East'
tp444
a(I3
S'West'
tp445
a(I0
S'South'
tp446
a(I1
S'North'
tp447
a(I2
S'East'
tp448
a(I3
S'West'
tp449
a(I0
S'South'
tp450
a(I1
S'North'
tp451
a(I2
S'East'
tp452
a(I3
S'North'
tp453
a(I0
S'South'
tp454
a(I1
S'North'
tp455
a(I2
S'East'
tp456
a(I3
S'North'
tp457
a(I0
S'South'
tp458
a(I1
S'West'
tp459
a(I2
S'East'
tp460
a(I3
S'North'
tp461
a(I0
S'South'
tp462
a(I1
S'North'
tp463
a(I2
S'North'
tp464
a(I3
S'North'
tp465
a(I0
S'North'
tp466
a(I1
S'West'
tp467
a(I2
S'North'
tp468
a(I3
S'North'
tp469
a(I0
S'North'
tp470
a(I1
S'North'
tp471
a(I2
S'North'
tp472
a(I3
S'North'
tp473
a(I0
S'North'
tp474
a(I1
S'West'
tp475
a(I2
S'North'
tp476
a(I3
S'West'
tp477
a(I0
S'North'
tp478
a(I1
S'West'
tp479
a(I2
S'North'
tp480
a(I3
S'West'
tp481
a(I0
S'North'
tp482
a(I1
S'West'
tp483
a(I2
S'North'
tp484
a(I3
S'West'
tp485
a(I0
S'North'
tp486
a(I1
S'West'
tp487
a(I2
S'North'
tp488
a(I3
S'West'
tp489
a(I0
S'East'
tp490
a(I1
S'West'
tp491
a(I2
S'North'
tp492
a(I3
S'South'
tp493
a(I0
S'East'
tp494
a(I1
S'West'
tp495
a(I2
S'North'
tp496
a(I3
S'South'
tp497
a(I0
S'East'
tp498
a(I1
S'South'
tp499
a(I2
S'North'
tp500
a(I3
S'West'
tp501
a(I0
S'East'
tp502
a(I1
S'South'
tp503
a(I2
S'North'
tp504
a(I3
S'West'
tp505
a(I0
S'North'
tp506
a(I1
S'South'
tp507
a(I2
S'North'
tp508
a(I3
S'West'
tp509
a(I0
S'East'
tp510
a(I1
S'South'
tp511
a(I2
S'North'
tp512
a(I3
S'West'
tp513
a(I0
S'East'
tp514
a(I1
S'South'
tp515
a(I2
S'North'
tp516
a(I3
S'North'
tp517
a(I0
S'South'
tp518
a(I1
S'West'
tp519
a(I2
S'North'
tp520
a(I3
S'North'
tp521
a(I0
S'South'
tp522
a(I1
S'West'
tp523
a(I2
S'North'
tp524
a(I3
S'North'
tp525
a(I0
S'South'
tp526
a(I1
S'East'
tp527
a(I2
S'East'
tp528
a(I3
S'North'
tp529
a(I0
S'West'
tp530
a(I1
S'East'
tp531
a(I2
S'East'
tp532
a(I3
S'North'
tp533
a(I0
S'West'
tp534
a(I1
S'East'
tp535
a(I2
S'South'
tp536
a(I3
S'North'
tp537
a(I0
S'South'
tp538
a(I1
S'North'
tp539
a(I2
S'South'
tp540
a(I3
S'North'
tp541
a(I0
S'West'
tp542
a(I1
S'North'
tp543
a(I2
S'East'
tp544
a(I3
S'North'
tp545
a(I0
S'West'
tp546
a(I1
S'North'
tp547
a(I2
S'East'
tp548
a(I3
S'North'
tp549
a(I0
S'North'
tp550
a(I1
S'North'
tp551
a(I2
S'East'
tp552
a(I3
S'North'
tp553
a(I0
S'North'
tp554
a(I1
S'North'
tp555
a(I2
S'East'
tp556
a(I3
S'North'
tp557
a(I0
S'North'
tp558
a(I1
S'East'
tp559
a(I2
S'South'
tp560
a(I3
S'North'
tp561
a(I0
S'North'
tp562
a(I1
S'East'
tp563
a(I2
S'South'
tp564
a(I3
S'North'
tp565
a(I0
S'North'
tp566
a(I1
S'North'
tp567
a(I2
S'South'
tp568
a(I3
S'North'
tp569
a(I0
S'North'
tp570
a(I1
S'North'
tp571
a(I2
S'East'
tp572
a(I3
S'North'
tp573
a(I0
S'North'
tp574
a(I1
S'North'
tp575
a(I2
S'East'
tp576
a(I3
S'North'
tp577
a(I0
S'North'
tp578
a(I1
S'North'
tp579
a(I2
S'East'
tp580
a(I3
S'Stop'
tp581
a(I0
S'East'
tp582
a(I1
S'North'
tp583
a(I2
S'East'
tp584
a(I3
S'West'
tp585
a(I0
S'East'
tp586
a(I1
S'West'
tp587
a(I2
S'East'
tp588
a(I3
S'West'
tp589
a(I0
S'East'
tp590
a(I1
S'West'
tp591
a(I2
S'East'
tp592
a(I3
S'West'
tp593
a(I0
S'East'
tp594
a(I1
S'South'
tp595
a(I2
S'East'
tp596
a(I3
S'West'
tp597
a(I0
S'East'
tp598
a(I1
S'South'
tp599
a(I2
S'East'
tp600
a(I3
S'West'
tp601
a(I0
S'East'
tp602
a(I1
S'South'
tp603
a(I2
S'West'
tp604
a(I3
S'West'
tp605
a(I0
S'East'
tp606
a(I1
S'South'
tp607
a(I2
S'West'
tp608
a(I3
S'West'
tp609
a(I0
S'East'
tp610
a(I1
S'South'
tp611
a(I2
S'West'
tp612
a(I3
S'West'
tp613
a(I0
S'East'
tp614
a(I1
S'South'
tp615
a(I2
S'West'
tp616
a(I3
S'West'
tp617
a(I0
S'East'
tp618
a(I1
S'South'
tp619
a(I2
S'West'
tp620
a(I3
S'West'
tp621
a(I0
S'North'
tp622
a(I1
S'West'
tp623
a(I2
S'West'
tp624
a(I3
S'West'
tp625
a(I0
S'North'
tp626
a(I1
S'West'
tp627
a(I2
S'West'
tp628
a(I3
S'West'
tp629
a(I0
S'North'
tp630
a(I1
S'East'
tp631
a(I2
S'West'
tp632
a(I3
S'West'
tp633
a(I0
S'East'
tp634
a(I1
S'East'
tp635
a(I2
S'West'
tp636
a(I3
S'West'
tp637
a(I0
S'East'
tp638
a(I1
S'East'
tp639
a(I2
S'North'
tp640
a(I3
S'West'
tp641
a(I0
S'East'
tp642
a(I1
S'North'
tp643
a(I2
S'North'
tp644
a(I3
S'West'
tp645
a(I0
S'East'
tp646
a(I1
S'North'
tp647
a(I2
S'East'
tp648
a(I3
S'West'
tp649
a(I0
S'North'
tp650
a(I1
S'East'
tp651
a(I2
S'East'
tp652
a(I3
S'West'
tp653
a(I0
S'North'
tp654
a(I1
S'East'
tp655
a(I2
S'East'
tp656
a(I3
S'Stop'
tp657
a(I0
S'East'
tp658
a(I1
S'North'
tp659
a(I2
S'North'
tp660
a(I3
S'Stop'
tp661
a(I0
S'East'
tp662
a(I1
S'North'
tp663
a(I2
S'East'
tp664
a(I3
S'West'
tp665
a(I0
S'East'
tp666
a(I1
S'North'
tp667
a(I2
S'East'
tp668
a(I3
S'West'
tp669
a(I0
S'East'
tp670
a(I1
S'North'
tp671
a(I2
S'East'
tp672
a(I3
S'West'
tp673
a(I0
S'East'
tp674
a(I1
S'North'
tp675
a(I2
S'South'
tp676
a(I3
S'West'
tp677
a(I0
S'East'
tp678
a(I1
S'North'
tp679
a(I2
S'South'
tp680
a(I3
S'West'
tp681
a(I0
S'East'
tp682
a(I1
S'North'
tp683
a(I2
S'East'
tp684
a(I3
S'West'
tp685
a(I0
S'East'
tp686
a(I1
S'East'
tp687
a(I2
S'East'
tp688
a(I3
S'West'
tp689
a(I0
S'East'
tp690
a(I1
S'East'
tp691
a(I2
S'East'
tp692
a(I3
S'West'
tp693
a(I0
S'East'
tp694
a(I1
S'East'
tp695
a(I2
S'East'
tp696
a(I3
S'West'
tp697
a(I0
S'East'
tp698
a(I1
S'North'
tp699
a(I2
S'East'
tp700
a(I3
S'West'
tp701
a(I0
S'North'
tp702
a(I1
S'West'
tp703
a(I2
S'East'
tp704
a(I3
S'West'
tp705
a(I0
S'East'
tp706
a(I1
S'West'
tp707
a(I2
S'East'
tp708
a(I3
S'West'
tp709
a(I0
S'East'
tp710
a(I1
S'West'
tp711
a(I2
S'East'
tp712
a(I3
S'West'
tp713
a(I0
S'East'
tp714
a(I1
S'South'
tp715
a(I2
S'North'
tp716
a(I3
S'West'
tp717
a(I0
S'East'
tp718
a(I1
S'South'
tp719
a(I2
S'North'
tp720
a(I3
S'West'
tp721
a(I0
S'East'
tp722
a(I1
S'South'
tp723
a(I2
S'North'
tp724
a(I3
S'West'
tp725
a(I0
S'East'
tp726
a(I1
S'South'
tp727
a(I2
S'North'
tp728
a(I3
S'West'
tp729
a(I0
S'South'
tp730
a(I1
S'South'
tp731
a(I2
S'North'
tp732
a(I3
S'West'
tp733
a(I0
S'East'
tp734
a(I1
S'South'
tp735
a(I2
S'North'
tp736
a(I3
S'West'
tp737
a(I0
S'East'
tp738
a(I1
S'South'
tp739
a(I2
S'East'
tp740
a(I3
S'West'
tp741
a(I0
S'West'
tp742
a(I1
S'South'
tp743
a(I2
S'East'
tp744
a(I3
S'South'
tp745
a(I0
S'West'
tp746
a(I1
S'South'
tp747
a(I2
S'East'
tp748
a(I3
S'South'
tp749
a(I0
S'West'
tp750
a(I1
S'South'
tp751
a(I2
S'East'
tp752
a(I3
S'South'
tp753
a(I0
S'North'
tp754
a(I1
S'East'
tp755
a(I2
S'North'
tp756
a(I3
S'South'
tp757
a(I0
S'West'
tp758
a(I1
S'East'
tp759
a(I2
S'North'
tp760
a(I3
S'West'
tp761
a(I0
S'West'
tp762
a(I1
S'South'
tp763
a(I2
S'East'
tp764
a(I3
S'West'
tp765
a(I0
S'West'
tp766
a(I1
S'South'
tp767
a(I2
S'East'
tp768
a(I3
S'West'
tp769
a(I0
S'West'
tp770
a(I1
S'South'
tp771
a(I2
S'East'
tp772
a(I3
S'West'
tp773
a(I0
S'West'
tp774
a(I1
S'East'
tp775
a(I2
S'East'
tp776
a(I3
S'West'
tp777
a(I0
S'West'
tp778
a(I1
S'East'
tp779
a(I2
S'North'
tp780
a(I3
S'West'
tp781
a(I0
S'South'
tp782
a(I1
S'North'
tp783
a(I2
S'North'
tp784
a(I3
S'West'
tp785
a(I0
S'West'
tp786
a(I1
S'East'
tp787
a(I2
S'North'
tp788
a(I3
S'West'
tp789
a(I0
S'West'
tp790
a(I1
S'East'
tp791
a(I2
S'North'
tp792
a(I3
S'South'
tp793
a(I0
S'North'
tp794
a(I1
S'North'
tp795
a(I2
S'West'
tp796
a(I3
S'South'
tp797
a(I0
S'North'
tp798
a(I1
S'North'
tp799
a(I2
S'West'
tp800
a(I3
S'South'
tp801
a(I0
S'North'
tp802
a(I1
S'West'
tp803
a(I2
S'West'
tp804
a(I3
S'South'
tp805
a(I0
S'East'
tp806
a(I1
S'North'
tp807
a(I2
S'East'
tp808
a(I3
S'South'
tp809
a(I0
S'East'
tp810
a(I1
S'North'
tp811
a(I2
S'East'
tp812
a(I3
S'South'
tp813
a(I0
S'East'
tp814
a(I1
S'West'
tp815
a(I2
S'East'
tp816
a(I3
S'South'
tp817
a(I0
S'East'
tp818
a(I1
S'South'
tp819
a(I2
S'East'
tp820
a(I3
S'South'
tp821
a(I0
S'North'
tp822
a(I1
S'East'
tp823
a(I2
S'East'
tp824
a(I3
S'South'
tp825
a(I0
S'North'
tp826
a(I1
S'North'
tp827
a(I2
S'East'
tp828
a(I3
S'South'
tp829
a(I0
S'East'
tp830
a(I1
S'West'
tp831
a(I2
S'East'
tp832
a(I3
S'West'
tp833
a(I0
S'East'
tp834
a(I1
S'South'
tp835
a(I2
S'East'
tp836
a(I3
S'West'
tp837
a(I0
S'East'
tp838
a(I1
S'East'
tp839
a(I2
S'East'
tp840
a(I3
S'North'
tp841
a(I0
S'East'
tp842
a(I1
S'North'
tp843
a(I2
S'East'
tp844
a(I3
S'North'
tp845
a(I0
S'East'
tp846
a(I1
S'West'
tp847
a(I2
S'East'
tp848
a(I3
S'North'
tp849
a(I0
S'East'
tp850
a(I1
S'South'
tp851
a(I2
S'East'
tp852
a(I3
S'North'
tp853
a(I0
S'East'
tp854
a(I1
S'East'
tp855
a(I2
S'East'
tp856
a(I3
S'North'
tp857
a(I0
S'East'
tp858
a(I1
S'North'
tp859
a(I2
S'East'
tp860
a(I3
S'West'
tp861
a(I0
S'East'
tp862
a(I1
S'West'
tp863
a(I2
S'East'
tp864
a(I3
S'West'
tp865
a(I0
S'East'
tp866
a(I1
S'North'
tp867
a(I2
S'East'
tp868
a(I3
S'West'
tp869
a(I0
S'East'
tp870
a(I1
S'North'
tp871
a(I2
S'East'
tp872
a(I3
S'West'
tp873
a(I0
S'East'
tp874
a(I1
S'North'
tp875
a(I2
S'East'
tp876
a(I3
S'South'
tp877
a(I0
S'East'
tp878
a(I1
S'North'
tp879
a(I2
S'East'
tp880
a(I3
S'South'
tp881
a(I0
S'East'
tp882
a(I1
S'North'
tp883
a(I2
S'East'
tp884
a(I3
S'East'
tp885
a(I0
S'East'
tp886
a(I1
S'East'
tp887
a(I2
S'East'
tp888
a(I3
S'East'
tp889
a(I0
S'East'
tp890
a(I1
S'East'
tp891
a(I2
S'East'
tp892
a(I3
S'South'
tp893
a(I0
S'East'
tp894
a(I1
S'North'
tp895
a(I2
S'East'
tp896
a(I3
S'West'
tp897
a(I0
S'East'
tp898
a(I1
S'North'
tp899
a(I2
S'East'
tp900
a(I3
S'North'
tp901
a(I0
S'East'
tp902
a(I1
S'North'
tp903
a(I2
S'East'
tp904
a(I3
S'West'
tp905
a(I0
S'East'
tp906
a(I1
S'North'
tp907
a(I2
S'East'
tp908
a(I3
S'South'
tp909
a(I0
S'East'
tp910
a(I1
S'North'
tp911
a(I2
S'East'
tp912
a(I3
S'East'
tp913
a(I0
S'East'
tp914
a(I1
S'North'
tp915
a(I2
S'East'
tp916
a(I3
S'East'
tp917
a(I0
S'West'
tp918
a(I1
S'North'
tp919
a(I2
S'North'
tp920
a(I3
S'East'
tp921
a(I0
S'West'
tp922
a(I1
S'West'
tp923
a(I2
S'North'
tp924
a(I3
S'East'
tp925
a(I0
S'West'
tp926
a(I1
S'West'
tp927
a(I2
S'North'
tp928
a(I3
S'South'
tp929
a(I0
S'West'
tp930
a(I1
S'West'
tp931
a(I2
S'North'
tp932
a(I3
S'South'
tp933
a(I0
S'West'
tp934
a(I1
S'West'
tp935
a(I2
S'North'
tp936
a(I3
S'East'
tp937
a(I0
S'East'
tp938
a(I1
S'West'
tp939
a(I2
S'North'
tp940
a(I3
S'East'
tp941
a(I0
S'East'
tp942
a(I1
S'West'
tp943
a(I2
S'North'
tp944
a(I3
S'South'
tp945
a(I0
S'North'
tp946
a(I1
S'West'
tp947
a(I2
S'North'
tp948
a(I3
S'South'
tp949
a(I0
S'East'
tp950
a(I1
S'West'
tp951
a(I2
S'North'
tp952
a(I3
S'North'
tp953
a(I0
S'East'
tp954
a(I1
S'West'
tp955
a(I2
S'North'
tp956
a(I3
S'North'
tp957
a(I0
S'East'
tp958
a(I1
S'West'
tp959
a(I2
S'North'
tp960
a(I3
S'West'
tp961
a(I0
S'East'
tp962
a(I1
S'East'
tp963
a(I2
S'North'
tp964
a(I3
S'West'
tp965
a(I0
S'East'
tp966
a(I1
S'East'
tp967
a(I2
S'North'
tp968
a(I3
S'North'
tp969
a(I0
S'East'
tp970
a(I1
S'East'
tp971
a(I2
S'North'
tp972
a(I3
S'North'
tp973
a(I0
S'South'
tp974
a(I1
S'East'
tp975
a(I2
S'North'
tp976
a(I3
S'West'
tp977
a(I0
S'East'
tp978
a(I1
S'East'
tp979
a(I2
S'North'
tp980
a(I3
S'North'
tp981
a(I0
S'East'
tp982
a(I1
S'East'
tp983
a(I2
S'North'
tp984
a(I3
S'West'
tp985
a(I0
S'North'
tp986
a(I1
S'East'
tp987
a(I2
S'North'
tp988
a(I3
S'West'
tp989
a(I0
S'North'
tp990
a(I1
S'East'
tp991
a(I2
S'North'
tp992
a(I3
S'West'
tp993
a(I0
S'East'
tp994
a(I1
S'East'
tp995
a(I2
S'North'
tp996
a(I3
S'West'
tp997
a(I0
S'East'
tp998
a(I1
S'East'
tp999
a(I2
S'North'
tp1000
a(I3
S'West'
tp1001
a(I0
S'West'
tp1002
a(I1
S'East'
tp1003
a(I2
S'North'
tp1004
a(I3
S'West'
tp1005
a(I0
S'East'
tp1006
a(I1
S'South'
tp1007
a(I2
S'West'
tp1008
a(I3
S'South'
tp1009
a(I0
S'East'
tp1010
a(I1
S'South'
tp1011
a(I2
S'West'
tp1012
a(I3
S'West'
tp1013
a(I0
S'North'
tp1014
a(I1
S'South'
tp1015
a(I2
S'West'
tp1016
a(I3
S'East'
tp1017
a(I0
S'East'
tp1018
a(I1
S'South'
tp1019
a(I2
S'West'
tp1020
a(I3
S'East'
tp1021
a(I0
S'East'
tp1022
a(I1
S'South'
tp1023
a(I2
S'North'
tp1024
a(I3
S'North'
tp1025
a(I0
S'East'
tp1026
a(I1
S'South'
tp1027
a(I2
S'North'
tp1028
a(I3
S'East'
tp1029
a(I0
S'East'
tp1030
a(I1
S'South'
tp1031
a(I2
S'West'
tp1032
a(I3
S'East'
tp1033
a(I0
S'East'
tp1034
a(I1
S'West'
tp1035
a(I2
S'West'
tp1036
a(I3
S'East'
tp1037
a(I0
S'East'
tp1038
a(I1
S'West'
tp1039
a(I2
S'West'
tp1040
a(I3
S'North'
tp1041
a(I0
S'South'
tp1042
a(I1
S'South'
tp1043
a(I2
S'West'
tp1044
a(I3
S'North'
tp1045
a(I0
S'East'
tp1046
a(I1
S'South'
tp1047
a(I2
S'West'
tp1048
a(I3
S'West'
tp1049
a(I0
S'East'
tp1050
a(I1
S'South'
tp1051
a(I2
S'West'
tp1052
a(I3
S'West'
tp1053
a(I0
S'North'
tp1054
a(I1
S'South'
tp1055
a(I2
S'West'
tp1056
a(I3
S'West'
tp1057
a(I0
S'North'
tp1058
a(I1
S'South'
tp1059
a(I2
S'West'
tp1060
a(I3
S'West'
tp1061
a(I0
S'East'
tp1062
a(I1
S'West'
tp1063
a(I2
S'South'
tp1064
a(I3
S'West'
tp1065
a(I0
S'East'
tp1066
a(I1
S'West'
tp1067
a(I2
S'South'
tp1068
a(I3
S'West'
tp1069
a(I0
S'East'
tp1070
a(I1
S'West'
tp1071
a(I2
S'South'
tp1072
a(I3
S'West'
tp1073
a(I0
S'East'
tp1074
a(I1
S'West'
tp1075
a(I2
S'South'
tp1076
a(I3
S'West'
tp1077
a(I0
S'East'
tp1078
a(I1
S'South'
tp1079
a(I2
S'East'
tp1080
a(I3
S'East'
tp1081
a(I0
S'East'
tp1082
a(I1
S'South'
tp1083
a(I2
S'East'
tp1084
a(I3
S'East'
tp1085
a(I0
S'East'
tp1086
a(I1
S'East'
tp1087
a(I2
S'Stop'
tp1088
a(I3
S'East'
tp1089
a(I0
S'East'
tp1090
a(I1
S'East'
tp1091
a(I2
S'North'
tp1092
a(I3
S'East'
tp1093
a(I0
S'East'
tp1094
a(I1
S'South'
tp1095
a(I2
S'North'
tp1096
a(I3
S'East'
tp1097
a(I0
S'East'
tp1098
a(I1
S'South'
tp1099
a(I2
S'North'
tp1100
a(I3
S'East'
tp1101
a(I0
S'East'
tp1102
a(I1
S'South'
tp1103
a(I2
S'North'
tp1104
a(I3
S'East'
tp1105
a(I0
S'East'
tp1106
a(I1
S'South'
tp1107
a(I2
S'North'
tp1108
a(I3
S'East'
tp1109
a(I0
S'East'
tp1110
a(I1
S'South'
tp1111
a(I2
S'North'
tp1112
a(I3
S'East'
tp1113
a(I0
S'East'
tp1114
a(I1
S'South'
tp1115
a(I2
S'North'
tp1116
a(I3
S'South'
tp1117
a(I0
S'South'
tp1118
a(I1
S'West'
tp1119
a(I2
S'East'
tp1120
a(I3
S'South'
tp1121
a(I0
S'South'
tp1122
a(I1
S'West'
tp1123
a(I2
S'East'
tp1124
a(I3
S'South'
tp1125
a(I0
S'South'
tp1126
a(I1
S'North'
tp1127
a(I2
S'North'
tp1128
a(I3
S'East'
tp1129
a(I0
S'South'
tp1130
a(I1
S'North'
tp1131
a(I2
S'North'
tp1132
a(I3
S'East'
tp1133
a(I0
S'South'
tp1134
a(I1
S'North'
tp1135
a(I2
S'North'
tp1136
a(I3
S'East'
tp1137
a(I0
S'South'
tp1138
a(I1
S'North'
tp1139
a(I2
S'North'
tp1140
a(I3
S'East'
tp1141
a(I0
S'South'
tp1142
a(I1
S'North'
tp1143
a(I2
S'North'
tp1144
a(I3
S'South'
tp1145
a(I0
S'South'
tp1146
a(I1
S'North'
tp1147
a(I2
S'East'
tp1148
a(I3
S'South'
tp1149
a(I0
S'South'
tp1150
a(I1
S'North'
tp1151
a(I2
S'East'
tp1152
a(I3
S'South'
tp1153
a(I0
S'South'
tp1154
a(I1
S'North'
tp1155
a(I2
S'East'
tp1156
a(I3
S'South'
tp1157
a(I0
S'North'
tp1158
a(I1
S'North'
tp1159
a(I2
S'East'
tp1160
a(I3
S'South'
tp1161
a(I0
S'East'
tp1162
a(I1
S'North'
tp1163
a(I2
S'East'
tp1164
a(I3
S'South'
tp1165
a(I0
S'East'
tp1166
a(I1
S'North'
tp1167
a(I2
S'East'
tp1168
a(I3
S'South'
tp1169
a(I0
S'North'
tp1170
a(I1
S'North'
tp1171
a(I2
S'North'
tp1172
a(I3
S'West'
tp1173
a(I0
S'East'
tp1174
a(I1
S'North'
tp1175
a(I2
S'North'
tp1176
a(I3
S'West'
tp1177
a(I0
S'East'
tp1178
a(I1
S'North'
tp1179
a(I2
S'East'
tp1180
a(I3
S'West'
tp1181
a(I0
S'East'
tp1182
a(I1
S'North'
tp1183
a(I2
S'East'
tp1184
a(I3
S'West'
tp1185
a(I0
S'East'
tp1186
a(I1
S'East'
tp1187
a(I2
S'East'
tp1188
a(I3
S'West'
tp1189
a(I0
S'East'
tp1190
a(I1
S'East'
tp1191
a(I2
S'East'
tp1192
a(I3
S'West'
tp1193
a(I0
S'East'
tp1194
a(I1
S'East'
tp1195
a(I2
S'North'
tp1196
a(I3
S'North'
tp1197
a(I0
S'South'
tp1198
a(I1
S'East'
tp1199
a(I2
S'North'
tp1200
a(I3
S'North'
tp1201
a(I0
S'East'
tp1202
a(I1
S'South'
tp1203
a(I2
S'North'
tp1204
a(I3
S'North'
tp1205
a(I0
S'East'
tp1206
a(I1
S'South'
tp1207
a(I2
S'North'
tp1208
a(I3
S'North'
tp1209
a(I0
S'North'
tp1210
a(I1
S'South'
tp1211
a(I2
S'North'
tp1212
a(I3
S'North'
tp1213
a(I0
S'North'
tp1214
a(I1
S'South'
tp1215
a(I2
S'North'
tp1216
a(I3
S'East'
tp1217
a(I0
S'East'
tp1218
a(I1
S'South'
tp1219
a(I2
S'North'
tp1220
a(I3
S'East'
tp1221
a(I0
S'East'
tp1222
a(I1
S'South'
tp1223
a(I2
S'North'
tp1224
a(I3
S'North'
tp1225
a(I0
S'East'
tp1226
a(I1
S'East'
tp1227
a(I2
S'North'
tp1228
a(I3
S'North'
tp1229
a(I0
S'East'
tp1230
a(I1
S'South'
tp1231
a(I2
S'North'
tp1232
a(I3
S'North'
tp1233
a(I0
S'West'
tp1234
a(I1
S'West'
tp1235
a(I2
S'North'
tp1236
a(I3
S'West'
tp1237
a(I0
S'West'
tp1238
a(I1
S'North'
tp1239
a(I2
S'North'
tp1240
a(I3
S'West'
tp1241
a(I0
S'West'
tp1242
a(I1
S'North'
tp1243
a(I2
S'East'
tp1244
a(I3
S'West'
tp1245
a(I0
S'East'
tp1246
a(I1
S'North'
tp1247
a(I2
S'East'
tp1248
a(I3
S'South'
tp1249
a(I0
S'East'
tp1250
a(I1
S'North'
tp1251
a(I2
S'North'
tp1252
a(I3
S'West'
tp1253
a(I0
S'North'
tp1254
a(I1
S'North'
tp1255
a(I2
S'North'
tp1256
a(I3
S'East'
tp1257
a(I0
S'East'
tp1258
a(I1
S'North'
tp1259
a(I2
S'North'
tp1260
a(I3
S'East'
tp1261
a(I0
S'East'
tp1262
a(I1
S'North'
tp1263
a(I2
S'North'
tp1264
a(I3
S'North'
tp1265
a(I0
S'East'
tp1266
a(I1
S'West'
tp1267
a(I2
S'North'
tp1268
a(I3
S'East'
tp1269
a(I0
S'East'
tp1270
a(I1
S'West'
tp1271
a(I2
S'East'
tp1272
a(I3
S'East'
tp1273
a(I0
S'East'
tp1274
a(I1
S'West'
tp1275
a(I2
S'East'
tp1276
a(I3
S'East'
tp1277
a(I0
S'East'
tp1278
a(I1
S'West'
tp1279
a(I2
S'East'
tp1280
a(I3
S'South'
tp1281
a(I0
S'South'
tp1282
a(I1
S'South'
tp1283
a(I2
S'East'
tp1284
a(I3
S'South'
tp1285
a(I0
S'East'
tp1286
a(I1
S'South'
tp1287
a(I2
S'East'
tp1288
a(I3
S'South'
tp1289
a(I0
S'East'
tp1290
a(I1
S'South'
tp1291
a(I2
S'East'
tp1292
a(I3
S'West'
tp1293
a(I0
S'North'
tp1294
a(I1
S'South'
tp1295
a(I2
S'North'
tp1296
a(I3
S'West'
tp1297
a(I0
S'North'
tp1298
a(I1
S'South'
tp1299
a(I2
S'North'
tp1300
a(I3
S'West'
tp1301
a(I0
S'East'
tp1302
a(I1
S'South'
tp1303
a(I2
S'East'
tp1304
a(I3
S'West'
tp1305
a(I0
S'East'
tp1306
a(I1
S'South'
tp1307
a(I2
S'East'
tp1308
a(I3
S'West'
tp1309
a(I0
S'East'
tp1310
a(I1
S'West'
tp1311
a(I2
S'East'
tp1312
a(I3
S'West'
tp1313
a(I0
S'East'
tp1314
a(I1
S'West'
tp1315
a(I2
S'East'
tp1316
a(I3
S'South'
tp1317
a(I0
S'East'
tp1318
a(I1
S'North'
tp1319
a(I2
S'West'
tp1320
a(I3
S'South'
tp1321
a(I0
S'East'
tp1322
a(I1
S'North'
tp1323
a(I2
S'West'
tp1324
a(I3
S'South'
tp1325
a(I0
S'South'
tp1326
a(I1
S'West'
tp1327
a(I2
S'East'
tp1328
a(I3
S'South'
tp1329
a(I0
S'South'
tp1330
a(I1
S'North'
tp1331
a(I2
S'North'
tp1332
a(I3
S'South'
tp1333
a(I0
S'South'
tp1334
a(I1
S'East'
tp1335
a(I2
S'North'
tp1336
a(I3
S'South'
tp1337
a(I0
S'South'
tp1338
a(I1
S'North'
tp1339
a(I2
S'North'
tp1340
a(I3
S'South'
tp1341
a(I0
S'South'
tp1342
a(I1
S'North'
tp1343
a(I2
S'North'
tp1344
a(I3
S'South'
tp1345
a(I0
S'South'
tp1346
a(I1
S'East'
tp1347
a(I2
S'North'
tp1348
a(I3
S'North'
tp1349
a(I0
S'South'
tp1350
a(I1
S'East'
tp1351
a(I2
S'North'
tp1352
a(I3
S'North'
tp1353
a(I0
S'South'
tp1354
a(I1
S'South'
tp1355
a(I2
S'North'
tp1356
a(I3
S'East'
tp1357
a(I0
S'North'
tp1358
a(I1
S'South'
tp1359
a(I2
S'East'
tp1360
a(I3
S'East'
tp1361
a(I0
S'East'
tp1362
a(I1
S'South'
tp1363
a(I2
S'East'
tp1364
a(I3
S'West'
tp1365
a(I0
S'East'
tp1366
a(I1
S'South'
tp1367
a(I2
S'North'
tp1368
a(I3
S'West'
tp1369
a(I0
S'North'
tp1370
a(I1
S'South'
tp1371
a(I2
S'North'
tp1372
a(I3
S'South'
tp1373
a(I0
S'East'
tp1374
a(I1
S'East'
tp1375
a(I2
S'North'
tp1376
a(I3
S'South'
tp1377
a(I0
S'East'
tp1378
a(I1
S'East'
tp1379
a(I2
S'North'
tp1380
a(I3
S'South'
tp1381
a(I0
S'East'
tp1382
a(I1
S'East'
tp1383
a(I2
S'North'
tp1384
a(I3
S'South'
tp1385
a(I0
S'East'
tp1386
a(I1
S'East'
tp1387
a(I2
S'East'
tp1388
a(I3
S'South'
tp1389
a(I0
S'East'
tp1390
a(I1
S'North'
tp1391
a(I2
S'East'
tp1392
a(I3
S'South'
tp1393
a(I0
S'East'
tp1394
a(I1
S'North'
tp1395
a(I2
S'East'
tp1396
a(I3
S'South'
tp1397
a(I0
S'South'
tp1398
a(I1
S'North'
tp1399
a(I2
S'East'
tp1400
a(I3
S'South'
tp1401
a(I0
S'East'
tp1402
a(I1
S'North'
tp1403
a(I2
S'East'
tp1404
a(I3
S'South'
tp1405
a(I0
S'East'
tp1406
a(I1
S'North'
tp1407
a(I2
S'East'
tp1408
a(I3
S'South'
tp1409
a(I0
S'North'
tp1410
a(I1
S'North'
tp1411
a(I2
S'North'
tp1412
a(I3
S'South'
tp1413
a(I0
S'North'
tp1414
a(I1
S'North'
tp1415
a(I2
S'North'
tp1416
a(I3
S'South'
tp1417
a(I0
S'East'
tp1418
a(I1
S'West'
tp1419
a(I2
S'East'
tp1420
a(I3
S'South'
tp1421
a(I0
S'East'
tp1422
a(I1
S'West'
tp1423
a(I2
S'East'
tp1424
a(I3
S'South'
tp1425
a(I0
S'East'
tp1426
a(I1
S'West'
tp1427
a(I2
S'East'
tp1428
a(I3
S'East'
tp1429
a(I0
S'East'
tp1430
a(I1
S'West'
tp1431
a(I2
S'East'
tp1432
a(I3
S'East'
tp1433
a(I0
S'Stop'
tp1434
a(I1
S'North'
tp1435
a(I2
S'South'
tp1436
a(I3
S'East'
tp1437
a(I0
S'West'
tp1438
a(I1
S'West'
tp1439
a(I2
S'South'
tp1440
a(I3
S'East'
tp1441
a(I0
S'West'
tp1442
a(I1
S'West'
tp1443
a(I2
S'South'
tp1444
a(I3
S'East'
tp1445
a(I0
S'West'
tp1446
a(I1
S'West'
tp1447
a(I2
S'South'
tp1448
a(I3
S'North'
tp1449
a(I0
S'East'
tp1450
a(I1
S'South'
tp1451
a(I2
S'East'
tp1452
a(I3
S'North'
tp1453
a(I0
S'East'
tp1454
a(I1
S'West'
tp1455
a(I2
S'East'
tp1456
a(I3
S'North'
tp1457
a(I0
S'North'
tp1458
a(I1
S'East'
tp1459
a(I2
S'East'
tp1460
a(I3
S'North'
tp1461
a(I0
S'East'
tp1462
a(I1
S'East'
tp1463
a(I2
S'East'
tp1464
a(I3
S'North'
tp1465
a(I0
S'East'
tp1466
a(I1
S'North'
tp1467
a(I2
S'North'
tp1468
a(I3
S'East'
tp1469
a(I0
S'East'
tp1470
a(I1
S'East'
tp1471
a(I2
S'North'
tp1472
a(I3
S'East'
tp1473
a(I0
S'East'
tp1474
a(I1
S'East'
tp1475
a(I2
S'North'
tp1476
a(I3
S'North'
tp1477
a(I0
S'East'
tp1478
a(I1
S'East'
tp1479
a(I2
S'North'
tp1480
a(I3
S'North'
tp1481
a(I0
S'East'
tp1482
a(I1
S'South'
tp1483
a(I2
S'North'
tp1484
a(I3
S'North'
tp1485
a(I0
S'South'
tp1486
a(I1
S'East'
tp1487
a(I2
S'East'
tp1488
a(I3
S'North'
tp1489
a(I0
S'East'
tp1490
a(I1
S'East'
tp1491
a(I2
S'East'
tp1492
a(I3
S'North'
tp1493
a(I0
S'East'
tp1494
a(I1
S'North'
tp1495
a(I2
S'East'
tp1496
a(I3
S'North'
tp1497
a(I0
S'North'
tp1498
a(I1
S'West'
tp1499
a(I2
S'East'
tp1500
a(I3
S'North'
tp1501
a(I0
S'North'
tp1502
a(I1
S'West'
tp1503
a(I2
S'East'
tp1504
a(I3
S'North'
tp1505
a(I0
S'East'
tp1506
a(I1
S'West'
tp1507
a(I2
S'East'
tp1508
a(I3
S'West'
tp1509
a(I0
S'East'
tp1510
a(I1
S'West'
tp1511
a(I2
S'East'
tp1512
a(I3
S'West'
tp1513
a(I0
S'West'
tp1514
a(I1
S'West'
tp1515
a(I2
S'East'
tp1516
a(I3
S'West'
tp1517
a(I0
S'East'
tp1518
a(I1
S'South'
tp1519
a(I2
S'East'
tp1520
a(I3
S'South'
tp1521
a(I0
S'East'
tp1522
a(I1
S'West'
tp1523
a(I2
S'East'
tp1524
a(I3
S'West'
tp1525
a(I0
S'North'
tp1526
a(I1
S'East'
tp1527
a(I2
S'East'
tp1528
a(I3
S'West'
tp1529
a(I0
S'East'
tp1530
a(I1
S'East'
tp1531
a(I2
S'East'
tp1532
a(I3
S'West'
tp1533
a(I0
S'East'
tp1534
a(I1
S'North'
tp1535
a(I2
S'East'
tp1536
a(I3
S'North'
tp1537
a(I0
S'East'
tp1538
a(I1
S'East'
tp1539
a(I2
S'East'
tp1540
a(I3
S'North'
tp1541
a(I0
S'East'
tp1542
a(I1
S'East'
tp1543
a(I2
S'East'
tp1544
a(I3
S'West'
tp1545
a(I0
S'East'
tp1546
a(I1
S'East'
tp1547
a(I2
S'East'
tp1548
a(I3
S'West'
tp1549
a(I0
S'East'
tp1550
a(I1
S'South'
tp1551
a(I2
S'East'
tp1552
a(I3
S'West'
tp1553
a(I0
S'South'
tp1554
a(I1
S'East'
tp1555
a(I2
S'East'
tp1556
a(I3
S'West'
tp1557
a(I0
S'East'
tp1558
a(I1
S'East'
tp1559
a(I2
S'East'
tp1560
a(I3
S'West'
tp1561
a(I0
S'East'
tp1562
a(I1
S'North'
tp1563
a(I2
S'East'
tp1564
a(I3
S'West'
tp1565
a(I0
S'North'
tp1566
a(I1
S'West'
tp1567
a(I2
S'East'
tp1568
a(I3
S'West'
tp1569
a(I0
S'North'
tp1570
a(I1
S'West'
tp1571
a(I2
S'East'
tp1572
a(I3
S'West'
tp1573
a(I0
S'East'
tp1574
a(I1
S'West'
tp1575
a(I2
S'East'
tp1576
a(I3
S'West'
tp1577
a(I0
S'East'
tp1578
a(I1
S'West'
tp1579
a(I2
S'East'
tp1580
a(I3
S'West'
tp1581
a(I0
S'West'
tp1582
a(I1
S'West'
tp1583
a(I2
S'East'
tp1584
a(I3
S'West'
tp1585
a(I0
S'East'
tp1586
a(I1
S'South'
tp1587
a(I2
S'East'
tp1588
a(I3
S'West'
tp1589
a(I0
S'East'
tp1590
a(I1
S'West'
tp1591
a(I2
S'East'
tp1592
a(I3
S'West'
tp1593
a(I0
S'North'
tp1594
a(I1
S'East'
tp1595
a(I2
S'East'
tp1596
a(I3
S'West'
tp1597
a(I0
S'East'
tp1598
a(I1
S'East'
tp1599
a(I2
S'North'
tp1600
a(I3
S'West'
tp1601
a(I0
S'East'
tp1602
a(I1
S'North'
tp1603
a(I2
S'North'
tp1604
a(I3
S'West'
tp1605
a(I0
S'South'
tp1606
a(I1
S'East'
tp1607
a(I2
S'North'
tp1608
a(I3
S'West'
tp1609
a(I0
S'South'
tp1610
a(I1
S'East'
tp1611
a(I2
S'North'
tp1612
a(I3
S'West'
tp1613
a(I0
S'South'
tp1614
a(I1
S'East'
tp1615
a(I2
S'North'
tp1616
a(I3
S'West'
tp1617
a(I0
S'West'
tp1618
a(I1
S'South'
tp1619
a(I2
S'North'
tp1620
a(I3
S'West'
tp1621
a(I0
S'West'
tp1622
a(I1
S'East'
tp1623
a(I2
S'North'
tp1624
a(I3
S'West'
tp1625
a(I0
S'South'
tp1626
a(I1
S'East'
tp1627
a(I2
S'North'
tp1628
a(I3
S'West'
tp1629
a(I0
S'West'
tp1630
a(I1
S'East'
tp1631
a(I2
S'North'
tp1632
a(I3
S'South'
tp1633
a(I0
S'West'
tp1634
a(I1
S'East'
tp1635
a(I2
S'North'
tp1636
a(I3
S'South'
tp1637
a(I0
S'North'
tp1638
a(I1
S'South'
tp1639
a(I2
S'North'
tp1640
a(I3
S'South'
tp1641
a(I0
S'North'
tp1642
a(I1
S'South'
tp1643
a(I2
S'North'
tp1644
a(I3
S'South'
tp1645
a(I0
S'North'
tp1646
a(I1
S'South'
tp1647
a(I2
S'North'
tp1648
a(I3
S'West'
tp1649
a(I0
S'North'
tp1650
a(I1
S'South'
tp1651
a(I2
S'North'
tp1652
a(I3
S'West'
tp1653
a(I0
S'North'
tp1654
a(I1
S'South'
tp1655
a(I2
S'North'
tp1656
a(I3
S'West'
tp1657
a(I0
S'North'
tp1658
a(I1
S'South'
tp1659
a(I2
S'North'
tp1660
a(I3
S'West'
tp1661
a(I0
S'East'
tp1662
a(I1
S'East'
tp1663
a(I2
S'North'
tp1664
a(I3
S'Stop'
tp1665
a(I0
S'East'
tp1666
a(I1
S'South'
tp1667
a(I2
S'North'
tp1668
a(I3
S'Stop'
tp1669
a(I0
S'East'
tp1670
a(I1
S'East'
tp1671
a(I2
S'North'
tp1672
a(I3
S'South'
tp1673
a(I0
S'East'
tp1674
a(I1
S'South'
tp1675
a(I2
S'North'
tp1676
a(I3
S'South'
tp1677
a(I0
S'North'
tp1678
a(I1
S'South'
tp1679
a(I2
S'North'
tp1680
a(I3
S'South'
tp1681
a(I0
S'North'
tp1682
a(I1
S'West'
tp1683
a(I2
S'East'
tp1684
a(I3
S'South'
tp1685
a(I0
S'East'
tp1686
a(I1
S'West'
tp1687
a(I2
S'East'
tp1688
a(I3
S'South'
tp1689
a(I0
S'East'
tp1690
a(I1
S'North'
tp1691
a(I2
S'East'
tp1692
a(I3
S'South'
tp1693
a(I0
S'East'
tp1694
a(I1
S'North'
tp1695
a(I2
S'East'
tp1696
a(I3
S'South'
tp1697
a(I0
S'East'
tp1698
a(I1
S'North'
tp1699
a(I2
S'East'
tp1700
a(I3
S'West'
tp1701
a(I0
S'East'
tp1702
a(I1
S'North'
tp1703
a(I2
S'East'
tp1704
a(I3
S'West'
tp1705
a(I0
S'East'
tp1706
a(I1
S'North'
tp1707
a(I2
S'East'
tp1708
a(I3
S'South'
tp1709
a(I0
S'East'
tp1710
a(I1
S'North'
tp1711
a(I2
S'East'
tp1712
a(I3
S'South'
tp1713
a(I0
S'East'
tp1714
a(I1
S'North'
tp1715
a(I2
S'East'
tp1716
a(I3
S'South'
tp1717
a(I0
S'East'
tp1718
a(I1
S'North'
tp1719
a(I2
S'East'
tp1720
a(I3
S'South'
tp1721
a(I0
S'East'
tp1722
a(I1
S'North'
tp1723
a(I2
S'East'
tp1724
a(I3
S'South'
tp1725
a(I0
S'East'
tp1726
a(I1
S'West'
tp1727
a(I2
S'East'
tp1728
a(I3
S'West'
tp1729
a(I0
S'East'
tp1730
a(I1
S'West'
tp1731
a(I2
S'East'
tp1732
a(I3
S'West'
tp1733
a(I0
S'East'
tp1734
a(I1
S'West'
tp1735
a(I2
S'East'
tp1736
a(I3
S'West'
tp1737
a(I0
S'East'
tp1738
a(I1
S'West'
tp1739
a(I2
S'East'
tp1740
a(I3
S'West'
tp1741
a(I0
S'East'
tp1742
a(I1
S'South'
tp1743
a(I2
S'East'
tp1744
a(I3
S'South'
tp1745
a(I0
S'East'
tp1746
a(I1
S'South'
tp1747
a(I2
S'East'
tp1748
a(I3
S'South'
tp1749
a(I0
S'East'
tp1750
a(I1
S'South'
tp1751
a(I2
S'East'
tp1752
a(I3
S'South'
tp1753
a(I0
S'East'
tp1754
a(I1
S'South'
tp1755
a(I2
S'East'
tp1756
a(I3
S'South'
tp1757
a(I0
S'East'
tp1758
a(I1
S'South'
tp1759
a(I2
S'East'
tp1760
a(I3
S'South'
tp1761
a(I0
S'East'
tp1762
a(I1
S'South'
tp1763
a(I2
S'East'
tp1764
a(I3
S'South'
tp1765
a(I0
S'East'
tp1766
a(I1
S'South'
tp1767
a(I2
S'East'
tp1768
a(I3
S'South'
tp1769
a(I0
S'East'
tp1770
a(I1
S'East'
tp1771
a(I2
S'East'
tp1772
a(I3
S'South'
tp1773
a(I0
S'East'
tp1774
a(I1
S'East'
tp1775
a(I2
S'East'
tp1776
a(I3
S'West'
tp1777
a(I0
S'East'
tp1778
a(I1
S'East'
tp1779
a(I2
S'East'
tp1780
a(I3
S'West'
tp1781
a(I0
S'South'
tp1782
a(I1
S'East'
tp1783
a(I2
S'East'
tp1784
a(I3
S'North'
tp1785
a(I0
S'South'
tp1786
a(I1
S'North'
tp1787
a(I2
S'East'
tp1788
a(I3
S'West'
tp1789
a(I0
S'South'
tp1790
a(I1
S'North'
tp1791
a(I2
S'East'
tp1792
a(I3
S'West'
tp1793
a(I0
S'South'
tp1794
a(I1
S'North'
tp1795
a(I2
S'North'
tp1796
a(I3
S'South'
tp1797
a(I0
S'South'
tp1798
a(I1
S'North'
tp1799
a(I2
S'North'
tp1800
a(I3
S'South'
tp1801
a(I0
S'South'
tp1802
a(I1
S'North'
tp1803
a(I2
S'North'
tp1804
a(I3
S'West'
tp1805
a(I0
S'South'
tp1806
a(I1
S'East'
tp1807
a(I2
S'North'
tp1808
a(I3
S'West'
tp1809
a(I0
S'South'
tp1810
a(I1
S'East'
tp1811
a(I2
S'North'
tp1812
a(I3
S'West'
tp1813
a(I0
S'North'
tp1814
a(I1
S'North'
tp1815
a(I2
S'North'
tp1816
a(I3
S'West'
tp1817
a(I0
S'North'
tp1818
a(I1
S'North'
tp1819
a(I2
S'North'
tp1820
a(I3
S'West'
tp1821
a(I0
S'North'
tp1822
a(I1
S'North'
tp1823
a(I2
S'North'
tp1824
a(I3
S'West'
tp1825
a(I0
S'North'
tp1826
a(I1
S'North'
tp1827
a(I2
S'North'
tp1828
a(I3
S'North'
tp1829
a(I0
S'North'
tp1830
a(I1
S'North'
tp1831
a(I2
S'North'
tp1832
a(I3
S'North'
tp1833
a(I0
S'North'
tp1834
a(I1
S'North'
tp1835
a(I2
S'North'
tp1836
a(I3
S'North'
tp1837
a(I0
S'North'
tp1838
a(I1
S'North'
tp1839
a(I2
S'North'
tp1840
a(I3
S'North'
tp1841
a(I0
S'East'
tp1842
a(I1
S'West'
tp1843
a(I2
S'North'
tp1844
a(I3
S'South'
tp1845
a(I0
S'East'
tp1846
a(I1
S'West'
tp1847
a(I2
S'North'
tp1848
a(I3
S'South'
tp1849
a(I0
S'North'
tp1850
a(I1
S'West'
tp1851
a(I2
S'North'
tp1852
a(I3
S'South'
tp1853
a(I0
S'East'
tp1854
a(I1
S'West'
tp1855
a(I2
S'North'
tp1856
a(I3
S'South'
tp1857
a(I0
S'East'
tp1858
a(I1
S'West'
tp1859
a(I2
S'North'
tp1860
a(I3
S'West'
tp1861
a(I0
S'East'
tp1862
a(I1
S'West'
tp1863
a(I2
S'North'
tp1864
a(I3
S'West'
tp1865
a(I0
S'East'
tp1866
a(I1
S'West'
tp1867
a(I2
S'North'
tp1868
a(I3
S'West'
tp1869
a(I0
S'South'
tp1870
a(I1
S'West'
tp1871
a(I2
S'North'
tp1872
a(I3
S'West'
tp1873
a(I0
S'South'
tp1874
a(I1
S'West'
tp1875
a(I2
S'North'
tp1876
a(I3
S'West'
tp1877
a(I0
S'South'
tp1878
a(I1
S'West'
tp1879
a(I2
S'North'
tp1880
a(I3
S'West'
tp1881
a(I0
S'South'
tp1882
a(I1
S'East'
tp1883
a(I2
S'North'
tp1884
a(I3
S'West'
tp1885
a(I0
S'South'
tp1886
a(I1
S'East'
tp1887
a(I2
S'North'
tp1888
a(I3
S'West'
tp1889
a(I0
S'South'
tp1890
a(I1
S'East'
tp1891
a(I2
S'West'
tp1892
a(I3
S'North'
tp1893
a(I0
S'South'
tp1894
a(I1
S'East'
tp1895
a(I2
S'West'
tp1896
a(I3
S'North'
tp1897
a(I0
S'South'
tp1898
a(I1
S'East'
tp1899
a(I2
S'East'
tp1900
a(I3
S'North'
tp1901
a(I0
S'South'
tp1902
a(I1
S'East'
tp1903
a(I2
S'East'
tp1904
a(I3
S'North'
tp1905
a(I0
S'South'
tp1906
a(I1
S'East'
tp1907
a(I2
S'North'
tp1908
a(I3
S'North'
tp1909
a(I0
S'South'
tp1910
a(I1
S'East'
tp1911
a(I2
S'North'
tp1912
a(I3
S'North'
tp1913
a(I0
S'South'
tp1914
a(I1
S'East'
tp1915
a(I2
S'West'
tp1916
a(I3
S'North'
tp1917
a(I0
S'South'
tp1918
a(I1
S'East'
tp1919
a(I2
S'West'
tp1920
a(I3
S'North'
tp1921
a(I0
S'South'
tp1922
a(I1
S'East'
tp1923
a(I2
S'West'
tp1924
a(I3
S'North'
tp1925
a(I0
S'South'
tp1926
a(I1
S'South'
tp1927
a(I2
S'West'
tp1928
a(I3
S'North'
tp1929
a(I0
S'West'
tp1930
a(I1
S'South'
tp1931
a(I2
S'North'
tp1932
a(I3
S'North'
tp1933
a(I0
S'West'
tp1934
a(I1
S'South'
tp1935
a(I2
S'North'
tp1936
a(I3
S'North'
tp1937
a(I0
S'West'
tp1938
a(I1
S'South'
tp1939
a(I2
S'South'
tp1940
a(I3
S'North'
tp1941
a(I0
S'West'
tp1942
a(I1
S'South'
tp1943
a(I2
S'South'
tp1944
a(I3
S'North'
tp1945
a(I0
S'North'
tp1946
a(I1
S'South'
tp1947
a(I2
S'South'
tp1948
a(I3
S'North'
tp1949
a(I0
S'North'
tp1950
a(I1
S'South'
tp1951
a(I2
S'South'
tp1952
a(I3
S'North'
tp1953
a(I0
S'North'
tp1954
a(I1
S'West'
tp1955
a(I2
S'South'
tp1956
a(I3
S'West'
tp1957
a(I0
S'North'
tp1958
a(I1
S'West'
tp1959
a(I2
S'South'
tp1960
a(I3
S'West'
tp1961
a(I0
S'North'
tp1962
a(I1
S'South'
tp1963
a(I2
S'South'
tp1964
a(I3
S'West'
tp1965
a(I0
S'North'
tp1966
a(I1
S'South'
tp1967
a(I2
S'South'
tp1968
a(I3
S'West'
tp1969
a(I0
S'West'
tp1970
a(I1
S'South'
tp1971
a(I2
S'North'
tp1972
a(I3
S'North'
tp1973
a(I0
S'North'
tp1974
a(I1
S'South'
tp1975
a(I2
S'North'
tp1976
a(I3
S'North'
tp1977
a(I0
S'West'
tp1978
a(I1
S'South'
tp1979
a(I2
S'East'
tp1980
a(I3
S'East'
tp1981
a(I0
S'North'
tp1982
a(I1
S'South'
tp1983
a(I2
S'East'
tp1984
a(I3
S'East'
tp1985
a(I0
S'East'
tp1986
a(I1
S'East'
tp1987
a(I2
S'West'
tp1988
a(I3
S'North'
tp1989
a(I0
S'East'
tp1990
a(I1
S'North'
tp1991
a(I2
S'North'
tp1992
a(I3
S'West'
tp1993
a(I0
S'South'
tp1994
a(I1
S'West'
tp1995
a(I2
S'North'
tp1996
a(I3
S'West'
tp1997
a(I0
S'East'
tp1998
a(I1
S'West'
tp1999
a(I2
S'North'
tp2000
a(I3
S'West'
tp2001
a(I0
S'East'
tp2002
a(I1
S'West'
tp2003
a(I2
S'North'
tp2004
a(I3
S'West'
tp2005
a(I0
S'East'
tp2006
a(I1
S'West'
tp2007
a(I2
S'North'
tp2008
a(I3
S'West'
tp2009
a(I0
S'East'
tp2010
a(I1
S'West'
tp2011
a(I2
S'North'
tp2012
a(I3
S'West'
tp2013
a(I0
S'East'
tp2014
a(I1
S'North'
tp2015
a(I2
S'North'
tp2016
a(I3
S'West'
tp2017
a(I0
S'East'
tp2018
a(I1
S'North'
tp2019
a(I2
S'East'
tp2020
a(I3
S'West'
tp2021
a(I0
S'North'
tp2022
a(I1
S'North'
tp2023
a(I2
S'East'
tp2024
a(I3
S'West'
tp2025
a(I0
S'North'
tp2026
a(I1
S'North'
tp2027
a(I2
S'South'
tp2028
a(I3
S'West'
tp2029
a(I0
S'East'
tp2030
a(I1
S'North'
tp2031
a(I2
S'South'
tp2032
a(I3
S'West'
tp2033
a(I0
S'East'
tp2034
a(I1
S'West'
tp2035
a(I2
S'East'
tp2036
a(I3
S'West'
tp2037
a(I0
S'East'
tp2038
a(I1
S'West'
tp2039
a(I2
S'East'
tp2040
a(I3
S'West'
tp2041
a(I0
S'East'
tp2042
a(I1
S'South'
tp2043
a(I2
S'East'
tp2044
a(I3
S'West'
tp2045
a(I0
S'South'
tp2046
a(I1
S'South'
tp2047
a(I2
S'East'
tp2048
a(I3
S'West'
tp2049
a(I0
S'South'
tp2050
a(I1
S'South'
tp2051
a(I2
S'South'
tp2052
a(I3
S'West'
tp2053
a(I0
S'South'
tp2054
a(I1
S'South'
tp2055
a(I2
S'East'
tp2056
a(I3
S'West'
tp2057
a(I0
S'South'
tp2058
a(I1
S'South'
tp2059
a(I2
S'East'
tp2060
a(I3
S'West'
tp2061
a(I0
S'East'
tp2062
a(I1
S'East'
tp2063
a(I2
S'East'
tp2064
a(I3
S'West'
tp2065
a(I0
S'East'
tp2066
a(I1
S'East'
tp2067
a(I2
S'North'
tp2068
a(I3
S'West'
tp2069
a(I0
S'East'
tp2070
a(I1
S'East'
tp2071
a(I2
S'East'
tp2072
a(I3
S'South'
tp2073
a(I0
S'North'
tp2074
a(I1
S'East'
tp2075
a(I2
S'East'
tp2076
a(I3
S'South'
tp2077
a(I0
S'East'
tp2078
a(I1
S'East'
tp2079
a(I2
S'East'
tp2080
a(I3
S'South'
tp2081
a(I0
S'East'
tp2082
a(I1
S'East'
tp2083
a(I2
S'South'
tp2084
a(I3
S'South'
tp2085
a(I0
S'South'
tp2086
a(I1
S'South'
tp2087
a(I2
S'South'
tp2088
a(I3
S'West'
tp2089
a(I0
S'South'
tp2090
a(I1
S'South'
tp2091
a(I2
S'East'
tp2092
a(I3
S'West'
tp2093
a(I0
S'South'
tp2094
a(I1
S'East'
tp2095
a(I2
S'East'
tp2096
a(I3
S'West'
tp2097
a(I0
S'West'
tp2098
a(I1
S'East'
tp2099
a(I2
S'East'
tp2100
a(I3
S'West'
tp2101
a(I0
S'West'
tp2102
a(I1
S'South'
tp2103
a(I2
S'East'
tp2104
a(I3
S'West'
tp2105
a(I0
S'South'
tp2106
a(I1
S'South'
tp2107
a(I2
S'East'
tp2108
a(I3
S'West'
tp2109
a(I0
S'West'
tp2110
a(I1
S'West'
tp2111
a(I2
S'East'
tp2112
a(I3
S'West'
tp2113
a(I0
S'West'
tp2114
a(I1
S'West'
tp2115
a(I2
S'East'
tp2116
a(I3
S'West'
tp2117
a(I0
S'North'
tp2118
a(I1
S'South'
tp2119
a(I2
S'East'
tp2120
a(I3
S'South'
tp2121
a(I0
S'North'
tp2122
a(I1
S'West'
tp2123
a(I2
S'North'
tp2124
a(I3
S'South'
tp2125
a(I0
S'North'
tp2126
a(I1
S'West'
tp2127
a(I2
S'North'
tp2128
a(I3
S'South'
tp2129
a(I0
S'North'
tp2130
a(I1
S'South'
tp2131
a(I2
S'North'
tp2132
a(I3
S'South'
tp2133
a(I0
S'North'
tp2134
a(I1
S'South'
tp2135
a(I2
S'North'
tp2136
a(I3
S'West'
tp2137
a(I0
S'North'
tp2138
a(I1
S'South'
tp2139
a(I2
S'North'
tp2140
a(I3
S'West'
tp2141
a(I0
S'East'
tp2142
a(I1
S'East'
tp2143
a(I2
S'North'
tp2144
a(I3
S'West'
tp2145
a(I0
S'East'
tp2146
a(I1
S'East'
tp2147
a(I2
S'North'
tp2148
a(I3
S'West'
tp2149
a(I0
S'East'
tp2150
a(I1
S'North'
tp2151
a(I2
S'North'
tp2152
a(I3
S'West'
tp2153
a(I0
S'East'
tp2154
a(I1
S'East'
tp2155
a(I2
S'North'
tp2156
a(I3
S'West'
tp2157
a(I0
S'North'
tp2158
a(I1
S'East'
tp2159
a(I2
S'North'
tp2160
a(I3
S'West'
tp2161
a(I0
S'North'
tp2162
a(I1
S'North'
tp2163
a(I2
S'East'
tp2164
a(I3
S'West'
tp2165
a(I0
S'West'
tp2166
a(I1
S'North'
tp2167
a(I2
S'East'
tp2168
a(I3
S'West'
tp2169
a(I0
S'West'
tp2170
a(I1
S'North'
tp2171
a(I2
S'South'
tp2172
a(I3
S'West'
tp2173
a(I0
S'West'
tp2174
a(I1
S'West'
tp2175
a(I2
S'South'
tp2176
a(I3
S'West'
tp2177
a(I0
S'West'
tp2178
a(I1
S'West'
tp2179
a(I2
S'East'
tp2180
a(I3
S'West'
tp2181
a(I0
S'South'
tp2182
a(I1
S'South'
tp2183
a(I2
S'East'
tp2184
a(I3
S'West'
tp2185
a(I0
S'South'
tp2186
a(I1
S'West'
tp2187
a(I2
S'East'
tp2188
a(I3
S'West'
tp2189
a(I0
S'East'
tp2190
a(I1
S'West'
tp2191
a(I2
S'East'
tp2192
a(I3
S'West'
tp2193
a(I0
S'East'
tp2194
a(I1
S'North'
tp2195
a(I2
S'South'
tp2196
a(I3
S'West'
tp2197
a(I0
S'East'
tp2198
a(I1
S'North'
tp2199
a(I2
S'East'
tp2200
a(I3
S'West'
tp2201
a(I0
S'East'
tp2202
a(I1
S'North'
tp2203
a(I2
S'East'
tp2204
a(I3
S'West'
tp2205
a(I0
S'North'
tp2206
a(I1
S'West'
tp2207
a(I2
S'East'
tp2208
a(I3
S'West'
tp2209
a(I0
S'North'
tp2210
a(I1
S'West'
tp2211
a(I2
S'North'
tp2212
a(I3
S'West'
tp2213
a(I0
S'West'
tp2214
a(I1
S'North'
tp2215
a(I2
S'East'
tp2216
a(I3
S'South'
tp2217
a(I0
S'West'
tp2218
a(I1
S'North'
tp2219
a(I2
S'East'
tp2220
a(I3
S'South'
tp2221
a(I0
S'West'
tp2222
a(I1
S'North'
tp2223
a(I2
S'East'
tp2224
a(I3
S'South'
tp2225
a(I0
S'West'
tp2226
a(I1
S'North'
tp2227
a(I2
S'South'
tp2228
a(I3
S'South'
tp2229
a(I0
S'South'
tp2230
a(I1
S'North'
tp2231
a(I2
S'South'
tp2232
a(I3
S'South'
tp2233
a(I0
S'South'
tp2234
a(I1
S'North'
tp2235
a(I2
S'East'
tp2236
a(I3
S'South'
tp2237
a(I0
S'South'
tp2238
a(I1
S'North'
tp2239
a(I2
S'East'
tp2240
a(I3
S'South'
tp2241
a(I0
S'South'
tp2242
a(I1
S'West'
tp2243
a(I2
S'East'
tp2244
a(I3
S'West'
tp2245
a(I0
S'South'
tp2246
a(I1
S'West'
tp2247
a(I2
S'East'
tp2248
a(I3
S'West'
tp2249
a(I0
S'East'
tp2250
a(I1
S'South'
tp2251
a(I2
S'East'
tp2252
a(I3
S'South'
tp2253
a(I0
S'East'
tp2254
a(I1
S'South'
tp2255
a(I2
S'East'
tp2256
a(I3
S'South'
tp2257
a(I0
S'North'
tp2258
a(I1
S'South'
tp2259
a(I2
S'East'
tp2260
a(I3
S'South'
tp2261
a(I0
S'East'
tp2262
a(I1
S'South'
tp2263
a(I2
S'East'
tp2264
a(I3
S'South'
tp2265
a(I0
S'East'
tp2266
a(I1
S'South'
tp2267
a(I2
S'North'
tp2268
a(I3
S'South'
tp2269
a(I0
S'East'
tp2270
a(I1
S'East'
tp2271
a(I2
S'North'
tp2272
a(I3
S'West'
tp2273
a(I0
S'East'
tp2274
a(I1
S'East'
tp2275
a(I2
S'North'
tp2276
a(I3
S'West'
tp2277
a(I0
S'East'
tp2278
a(I1
S'South'
tp2279
a(I2
S'North'
tp2280
a(I3
S'West'
tp2281
a(I0
S'East'
tp2282
a(I1
S'South'
tp2283
a(I2
S'North'
tp2284
a(I3
S'West'
tp2285
a(I0
S'South'
tp2286
a(I1
S'East'
tp2287
a(I2
S'North'
tp2288
a(I3
S'South'
tp2289
a(I0
S'East'
tp2290
a(I1
S'East'
tp2291
a(I2
S'East'
tp2292
a(I3
S'South'
tp2293
a(I0
S'East'
tp2294
a(I1
S'South'
tp2295
a(I2
S'East'
tp2296
a(I3
S'East'
tp2297
a(I0
S'North'
tp2298
a(I1
S'South'
tp2299
a(I2
S'East'
tp2300
a(I3
S'East'
tp2301
a(I0
S'North'
tp2302
a(I1
S'South'
tp2303
a(I2
S'East'
tp2304
a(I3
S'South'
tp2305
a(I0
S'East'
tp2306
a(I1
S'East'
tp2307
a(I2
S'West'
tp2308
a(I3
S'South'
tp2309
a(I0
S'East'
tp2310
a(I1
S'East'
tp2311
a(I2
S'North'
tp2312
a(I3
S'South'
tp2313
a(I0
S'East'
tp2314
a(I1
S'North'
tp2315
a(I2
S'North'
tp2316
a(I3
S'South'
tp2317
a(I0
S'East'
tp2318
a(I1
S'East'
tp2319
a(I2
S'North'
tp2320
a(I3
S'South'
tp2321
a(I0
S'East'
tp2322
a(I1
S'East'
tp2323
a(I2
S'North'
tp2324
a(I3
S'South'
tp2325
a(I0
S'East'
tp2326
a(I1
S'North'
tp2327
a(I2
S'North'
tp2328
a(I3
S'West'
tp2329
a(I0
S'East'
tp2330
a(I1
S'North'
tp2331
a(I2
S'North'
tp2332
a(I3
S'West'
tp2333
a(I0
S'East'
tp2334
a(I1
S'West'
tp2335
a(I2
S'North'
tp2336
a(I3
S'West'
tp2337
a(I0
S'East'
tp2338
a(I1
S'West'
tp2339
a(I2
S'East'
tp2340
a(I3
S'West'
tp2341
a(I0
S'East'
tp2342
a(I1
S'North'
tp2343
a(I2
S'East'
tp2344
a(I3
S'North'
tp2345
a(I0
S'South'
tp2346
a(I1
S'North'
tp2347
a(I2
S'South'
tp2348
a(I3
S'West'
tp2349
a(I0
S'South'
tp2350
a(I1
S'North'
tp2351
a(I2
S'South'
tp2352
a(I3
S'West'
tp2353
a(I0
S'West'
tp2354
a(I1
S'North'
tp2355
a(I2
S'East'
tp2356
a(I3
S'South'
tp2357
a(I0
S'West'
tp2358
a(I1
S'North'
tp2359
a(I2
S'East'
tp2360
a(I3
S'South'
tp2361
a(I0
S'West'
tp2362
a(I1
S'North'
tp2363
a(I2
S'East'
tp2364
a(I3
S'West'
tp2365
a(I0
S'West'
tp2366
a(I1
S'North'
tp2367
a(I2
S'East'
tp2368
a(I3
S'West'
tp2369
a(I0
S'South'
tp2370
a(I1
S'North'
tp2371
a(I2
S'South'
tp2372
a(I3
S'East'
tp2373
a(I0
S'South'
tp2374
a(I1
S'North'
tp2375
a(I2
S'East'
tp2376
a(I3
S'East'
tp2377
a(I0
S'South'
tp2378
a(I1
S'West'
tp2379
a(I2
S'East'
tp2380
a(I3
S'West'
tp2381
a(I0
S'South'
tp2382
a(I1
S'West'
tp2383
a(I2
S'East'
tp2384
a(I3
S'South'
tp2385
a(I0
S'South'
tp2386
a(I1
S'West'
tp2387
a(I2
S'North'
tp2388
a(I3
S'South'
tp2389
a(I0
S'South'
tp2390
a(I1
S'West'
tp2391
a(I2
S'East'
tp2392
a(I3
S'South'
tp2393
a(I0
S'South'
tp2394
a(I1
S'South'
tp2395
a(I2
S'East'
tp2396
a(I3
S'South'
tp2397
a(I0
S'South'
tp2398
a(I1
S'South'
tp2399
a(I2
S'East'
tp2400
a(I3
S'South'
tp2401
a(I0
S'South'
tp2402
a(I1
S'South'
tp2403
a(I2
S'South'
tp2404
a(I3
S'South'
tp2405
a(I0
S'South'
tp2406
a(I1
S'South'
tp2407
a(I2
S'South'
tp2408
a(I3
S'South'
tp2409
a(I0
S'South'
tp2410
a(I1
S'South'
tp2411
a(I2
S'East'
tp2412
a(I3
S'West'
tp2413
a(I0
S'South'
tp2414
a(I1
S'South'
tp2415
a(I2
S'East'
tp2416
a(I3
S'West'
tp2417
a(I0
S'North'
tp2418
a(I1
S'South'
tp2419
a(I2
S'East'
tp2420
a(I3
S'South'
tp2421
a(I0
S'East'
tp2422
a(I1
S'South'
tp2423
a(I2
S'East'
tp2424
a(I3
S'South'
tp2425
a(I0
S'East'
tp2426
a(I1
S'South'
tp2427
a(I2
S'East'
tp2428
a(I3
S'South'
tp2429
a(I0
S'North'
tp2430
a(I1
S'East'
tp2431
a(I2
S'East'
tp2432
a(I3
S'South'
tp2433
a(I0
S'East'
tp2434
a(I1
S'East'
tp2435
a(I2
S'East'
tp2436
a(I3
S'South'
tp2437
a(I0
S'East'
tp2438
a(I1
S'South'
tp2439
a(I2
S'East'
tp2440
a(I3
S'West'
tp2441
a(I0
S'East'
tp2442
a(I1
S'South'
tp2443
a(I2
S'North'
tp2444
a(I3
S'West'
tp2445
a(I0
S'East'
tp2446
a(I1
S'South'
tp2447
a(I2
S'North'
tp2448
a(I3
S'West'
tp2449
a(I0
S'East'
tp2450
a(I1
S'South'
tp2451
a(I2
S'North'
tp2452
a(I3
S'West'
tp2453
a(I0
S'East'
tp2454
a(I1
S'South'
tp2455
a(I2
S'North'
tp2456
a(I3
S'West'
tp2457
a(I0
S'South'
tp2458
a(I1
S'South'
tp2459
a(I2
S'North'
tp2460
a(I3
S'West'
tp2461
a(I0
S'East'
tp2462
a(I1
S'West'
tp2463
a(I2
S'North'
tp2464
a(I3
S'South'
tp2465
a(I0
S'East'
tp2466
a(I1
S'West'
tp2467
a(I2
S'North'
tp2468
a(I3
S'South'
tp2469
a(I0
S'North'
tp2470
a(I1
S'North'
tp2471
a(I2
S'North'
tp2472
a(I3
S'West'
tp2473
a(I0
S'North'
tp2474
a(I1
S'North'
tp2475
a(I2
S'North'
tp2476
a(I3
S'West'
tp2477
a(I0
S'East'
tp2478
a(I1
S'North'
tp2479
a(I2
S'North'
tp2480
a(I3
S'South'
tp2481
a(I0
S'East'
tp2482
a(I1
S'North'
tp2483
a(I2
S'East'
tp2484
a(I3
S'South'
tp2485
a(I0
S'East'
tp2486
a(I1
S'North'
tp2487
a(I2
S'East'
tp2488
a(I3
S'West'
tp2489
a(I0
S'East'
tp2490
a(I1
S'North'
tp2491
a(I2
S'South'
tp2492
a(I3
S'West'
tp2493
a(I0
S'East'
tp2494
a(I1
S'North'
tp2495
a(I2
S'South'
tp2496
a(I3
S'North'
tp2497
a(I0
S'East'
tp2498
a(I1
S'North'
tp2499
a(I2
S'East'
tp2500
a(I3
S'North'
tp2501
a(I0
S'South'
tp2502
a(I1
S'North'
tp2503
a(I2
S'East'
tp2504
a(I3
S'North'
tp2505
a(I0
S'South'
tp2506
a(I1
S'North'
tp2507
a(I2
S'East'
tp2508
a(I3
S'North'
tp2509
a(I0
S'South'
tp2510
a(I1
S'North'
tp2511
a(I2
S'East'
tp2512
a(I3
S'North'
tp2513
a(I0
S'South'
tp2514
a(I1
S'North'
tp2515
a(I2
S'South'
tp2516
a(I3
S'North'
tp2517
a(I0
S'North'
tp2518
a(I1
S'North'
tp2519
a(I2
S'East'
tp2520
a(I3
S'North'
tp2521
a(I0
S'North'
tp2522
a(I1
S'North'
tp2523
a(I2
S'East'
tp2524
a(I3
S'North'
tp2525
a(I0
S'East'
tp2526
a(I1
S'North'
tp2527
a(I2
S'East'
tp2528
a(I3
S'North'
tp2529
a(I0
S'East'
tp2530
a(I1
S'East'
tp2531
a(I2
S'North'
tp2532
a(I3
S'North'
tp2533
a(I0
S'West'
tp2534
a(I1
S'East'
tp2535
a(I2
S'East'
tp2536
a(I3
S'South'
tp2537
a(I0
S'East'
tp2538
a(I1
S'East'
tp2539
a(I2
S'East'
tp2540
a(I3
S'South'
tp2541
a(I0
S'East'
tp2542
a(I1
S'East'
tp2543
a(I2
S'East'
tp2544
a(I3
S'South'
tp2545
a(I0
S'North'
tp2546
a(I1
S'South'
tp2547
a(I2
S'South'
tp2548
a(I3
S'South'
tp2549
a(I0
S'East'
tp2550
a(I1
S'South'
tp2551
a(I2
S'South'
tp2552
a(I3
S'South'
tp2553
a(I0
S'East'
tp2554
a(I1
S'South'
tp2555
a(I2
S'East'
tp2556
a(I3
S'South'
tp2557
a(I0
S'East'
tp2558
a(I1
S'South'
tp2559
a(I2
S'East'
tp2560
a(I3
S'South'
tp2561
a(I0
S'East'
tp2562
a(I1
S'South'
tp2563
a(I2
S'East'
tp2564
a(I3
S'South'
tp2565
a(I0
S'South'
tp2566
a(I1
S'South'
tp2567
a(I2
S'East'
tp2568
a(I3
S'South'
tp2569
a(I0
S'South'
tp2570
a(I1
S'South'
tp2571
a(I2
S'East'
tp2572
a(I3
S'South'
tp2573
a(I0
S'South'
tp2574
a(I1
S'West'
tp2575
a(I2
S'East'
tp2576
a(I3
S'South'
tp2577
a(I0
S'South'
tp2578
a(I1
S'West'
tp2579
a(I2
S'East'
tp2580
a(I3
S'South'
tp2581
a(I0
S'South'
tp2582
a(I1
S'West'
tp2583
a(I2
S'East'
tp2584
a(I3
S'South'
tp2585
a(I0
S'South'
tp2586
a(I1
S'West'
tp2587
a(I2
S'North'
tp2588
a(I3
S'South'
tp2589
a(I0
S'South'
tp2590
a(I1
S'South'
tp2591
a(I2
S'North'
tp2592
a(I3
S'North'
tp2593
a(I0
S'South'
tp2594
a(I1
S'South'
tp2595
a(I2
S'North'
tp2596
a(I3
S'North'
tp2597
a(I0
S'East'
tp2598
a(I1
S'South'
tp2599
a(I2
S'North'
tp2600
a(I3
S'North'
tp2601
a(I0
S'East'
tp2602
a(I1
S'South'
tp2603
a(I2
S'North'
tp2604
a(I3
S'North'
tp2605
a(I0
S'South'
tp2606
a(I1
S'South'
tp2607
a(I2
S'North'
tp2608
a(I3
S'East'
tp2609
a(I0
S'South'
tp2610
a(I1
S'South'
tp2611
a(I2
S'North'
tp2612
a(I3
S'East'
tp2613
a(I0
S'East'
tp2614
a(I1
S'South'
tp2615
a(I2
S'North'
tp2616
a(I3
S'Stop'
tp2617
a(I0
S'East'
tp2618
a(I1
S'South'
tp2619
a(I2
S'North'
tp2620
a(I3
S'North'
tp2621
a(I0
S'West'
tp2622
a(I1
S'East'
tp2623
a(I2
S'North'
tp2624
a(I3
S'North'
tp2625
a(I0
S'West'
tp2626
a(I1
S'East'
tp2627
a(I2
S'North'
tp2628
a(I3
S'West'
tp2629
a(I0
S'West'
tp2630
a(I1
S'North'
tp2631
a(I2
S'North'
tp2632
asS'gameOver'
p2633
I01
sS'display'
p2634
(igraphicsDisplay
PacmanGraphics
p2635
(dp2636
S'pacmanImage'
p2637
NsS'capture'
p2638
I01
sS'gridSize'
p2639
F30
sg20
(ilayout
Layout
p2640
(dp2641
g23
(lp2642
sg25
I4
sg26
(igame
Grid
p2643
(dp2644
g29
I30
sg30
I22
sg15
(lp2645
(lp2646
I00
aI00
aI00
aI00
aI00
aI00
aI00
aI00
aI00
aI00
aI00
aI00
aI00
aI00
aI00
aI00
aI00
aI00
aI00
aI00
aI00
aI00
aI00
aI00
aI00
aI00
aI00
aa(lp2647
I00
aI00
aI00
aI00
aI00
aI00
aI00
aI00
aI00
aI00
aI00
aI00
aI01
aI01
aI01
aI01
aI01
aI01
aI01
aI00
aI00
aI00
aI00
aI01
aI01
aI01
aI00
aa(lp2648
I00
aI00
aI00
aI00
aI00
aI00
aI00
aI00
aI00
aI00
aI00
aI00
aI01
aI01
aI01
aI01
aI00
aI01
aI00
aI00
aI00
aI00
aI00
aI01
aI00
aI00
aI00
aa(lp2649
I00
aI00
aI00
aI00
aI00
aI00
aI01
aI01
aI01
aI01
aI01
aI01
aI01
aI01
aI01
aI01
aI00
aI01
aI01
aI00
aI00
aI00
aI00
aI01
aI00
aI00
aI00
aa(lp2650
I00
aI00
aI00
aI00
aI00
aI01
aI00
aI00
aI00
aI00
aI00
aI00
aI00
aI01
aI00
aI00
aI00
aI00
aI01
aI00
aI00
aI00
aI00
aI01
aI00
aI00
aI00
aa(lp2651
I00
aI00
aI00
aI00
aI00
aI00
aI01
aI00
aI00
aI00
aI00
aI00
aI00
aI01
aI00
aI01
aI01
aI01
aI01
aI00
aI00
aI00
aI00
aI01
aI00
aI00
aI00
aa(lp2652
I00
aI00
aI00
aI00
aI00
aI01
aI00
aI00
aI00
aI00
aI00
aI00
aI00
aI01
aI00
aI01
aI00
aI00
aI00
aI00
aI00
aI00
aI00
aI00
aI00
aI00
aI00
aa(lp2653
I00
aI00
aI00
aI00
aI00
aI00
aI01
aI01
aI01
aI01
aI01
aI01
aI01
aI01
aI01
aI01
aI00
aI00
aI00
aI00
aI00
aI00
aI00
aI00
aI00
aI00
aI00
aa(lp2654
I00
aI00
aI00
aI00
aI00
aI01
aI00
aI00
aI01
aI00
aI00
aI00
aI00
aI00
aI00
aI00
aI00
aI00
aI00
aI00
aI00
aI00
aI00
aI01
aI00
aI00
aI00
aa(lp2655
I00
aI00
aI00
aI00
aI00
aI00
aI00
aI00
aI01
aI01
aI01
aI01
aI01
aI00
aI01
aI01
aI01
aI01
aI01
aI00
aI00
aI00
aI00
aI01
aI00
aI00
aI00
aa(lp2656
I00
aI00
aI00
aI00
aI00
aI00
aI00
aI00
aI00
aI00
aI00
aI00
aI00
aI00
aI00
aI00
aI00
aI00
aI00
aI00
aI00
aI00
aI00
aI00
aI00
aI00
aI00
aa(lp2657
I00
aI00
aI00
aI00
aI00
aI00
aI00
aI00
aI00
aI00
aI00
aI00
aI00
aI00
aI00
aI00
aI00
aI00
aI00
aI00
aI00
aI00
aI00
aI00
aI00
aI00
aI00
aa(lp2658
I00
aI00
aI00
aI01
aI00
aI00
aI00
aI00
aI01
aI01
aI01
aI01
aI01
aI00
aI01
aI01
aI01
aI01
aI01
aI00
aI00
aI00
aI00
aI00
aI00
aI00
aI00
aa(lp2659
I00
aI00
aI00
aI01
aI00
aI00
aI00
aI00
aI00
aI00
aI00
aI00
aI00
aI00
aI00
aI00
aI00
aI00
aI01
aI00
aI00
aI01
aI00
aI00
aI00
aI00
aI00
aa(lp2660
I00
aI00
aI00
aI00
aI00
aI00
aI00
aI00
aI00
aI00
aI00
aI01
aI01
aI01
aI01
aI01
aI01
aI01
aI01
aI01
aI01
aI00
aI00
aI00
aI00
aI00
aI00
aa(lp2661
I00
aI00
aI00
aI00
aI00
aI00
aI00
aI00
aI00
aI00
aI00
aI01
aI00
aI01
aI00
aI00
aI00
aI00
aI00
aI00
aI00
aI01
aI00
aI00
aI00
aI00
aI00
aa(lp2662
I00
aI00
aI00
aI01
aI00
aI00
aI00
aI00
aI01
aI01
aI01
aI01
aI00
aI01
aI00
aI00
aI00
aI00
aI00
aI00
aI01
aI00
aI00
aI00
aI00
aI00
aI00
aa(lp2663
I00
aI00
aI00
aI01
aI00
aI00
aI00
aI00
aI01
aI00
aI00
aI00
aI00
aI01
aI00
aI00
aI00
aI00
aI00
aI00
aI00
aI01
aI00
aI00
aI00
aI00
aI00
aa(lp2664
I00
aI00
aI00
aI01
aI00
aI00
aI00
aI00
aI01
aI01
aI00
aI01
aI01
aI01
aI01
aI01
aI01
aI01
aI01
aI01
aI01
aI00
aI00
aI00
aI00
aI00
aI00
aa(lp2665
I00
aI00
aI00
aI01
aI00
aI00
aI00
aI00
aI00
aI01
aI00
aI01
aI01
aI01
aI01
aI00
aI00
aI00
aI00
aI00
aI00
aI00
aI00
aI00
aI00
aI00
aI00
aa(lp2666
I00
aI01
aI01
aI01
aI00
aI00
aI00
aI00
aI01
aI01
aI01
aI01
aI01
aI01
aI01
aI00
aI00
aI00
aI00
aI00
aI00
aI00
aI00
aI00
aI00
aI00
aI00
aa(lp2667
I00
aI00
aI00
aI00
aI00
aI00
aI00
aI00
aI00
aI00
aI00
aI00
aI00
aI00
aI00
aI00
aI00
aI00
aI00
aI00
aI00
aI00
aI00
aI00
aI00
aI00
aI00
aasg54
I27
sbsg55
(lp2668
(I00
(I1
I20
tp2669
tp2670
a(I00
(I20
I6
tp2671
tp2672
a(I00
(I1
I1
tp2673
tp2674
a(I00
(I20
I25
tp2675
tp2676
asg54
I27
sg30
I22
sg65
(igame
Grid
p2677
(dp2678
g29
I30
sg30
I22
sg15
(lp2679
(lp2680
I01
aI01
aI01
aI01
aI01
aI01
aI01
aI01
aI01
aI01
aI01
aI01
aI01
aI01
aI01
aI01
aI01
aI01
aI01
aI01
aI01
aI01
aI01
aI01
aI01
aI01
aI01
aa(lp2681
I01
aI00
aI00
aI00
aI00
aI00
aI00
aI00
aI00
aI00
aI00
aI01
aI00
aI00
aI00
aI00
aI00
aI00
aI00
aI00
aI00
aI00
aI00
aI00
aI00
aI00
aI01
aa(lp2682
I01
aI00
aI01
aI01
aI01
aI01
aI01
aI01
aI00
aI01
aI01
aI01
aI00
aI00
aI00
aI00
aI01
aI00
aI01
aI01
aI00
aI01
aI01
aI00
aI01
aI00
aI01
aa(lp2683
I01
aI00
aI01
aI00
aI00
aI00
aI00
aI00
aI00
aI00
aI00
aI00
aI00
aI00
aI00
aI00
aI01
aI00
aI00
aI01
aI00
aI00
aI01
aI00
aI01
aI00
aI01
aa(lp2684
I01
aI00
aI01
aI00
aI01
aI00
aI00
aI01
aI01
aI01
aI01
aI01
aI01
aI00
aI01
aI01
aI01
aI01
aI00
aI01
aI01
aI00
aI01
aI00
aI01
aI00
aI01
aa(lp2685
I01
aI00
aI01
aI00
aI01
aI00
aI00
aI00
aI00
aI00
aI00
aI00
aI01
aI00
aI01
aI00
aI00
aI00
aI00
aI00
aI00
aI00
aI01
aI00
aI00
aI00
aI01
aa(lp2686
I01
aI00
aI01
aI00
aI01
aI00
aI00
aI01
aI01
aI01
aI01
aI01
aI01
aI00
aI01
aI00
aI01
aI01
aI01
aI01
aI01
aI00
aI01
aI01
aI01
aI00
aI01
aa(lp2687
I01
aI00
aI01
aI00
aI00
aI00
aI00
aI00
aI00
aI00
aI00
aI00
aI00
aI00
aI00
aI00
aI00
aI00
aI00
aI00
aI00
aI00
aI01
aI01
aI01
aI00
aI01
aa(lp2688
I01
aI00
aI01
aI00
aI01
aI00
aI01
aI01
aI00
aI01
aI01
aI01
aI01
aI00
aI01
aI01
aI01
aI01
aI01
aI01
aI01
aI00
aI01
aI00
aI01
aI00
aI01
aa(lp2689
I01
aI00
aI01
aI00
aI01
aI00
aI01
aI01
aI00
aI00
aI00
aI00
aI00
aI00
aI00
aI00
aI00
aI00
aI00
aI01
aI00
aI00
aI01
aI00
aI01
aI00
aI01
aa(lp2690
I01
aI00
aI01
aI00
aI01
aI00
aI00
aI01
aI00
aI01
aI00
aI00
aI01
aI01
aI01
aI00
aI01
aI01
aI00
aI01
aI00
aI01
aI01
aI00
aI01
aI00
aI01
aa(lp2691
I01
aI00
aI01
aI00
aI01
aI01
aI00
aI01
aI00
aI01
aI01
aI00
aI01
aI01
aI01
aI00
aI00
aI01
aI00
aI01
aI00
aI00
aI01
aI00
aI01
aI00
aI01
aa(lp2692
I01
aI00
aI01
aI00
aI01
aI00
aI00
aI01
aI00
aI00
aI00
aI00
aI00
aI00
aI00
aI00
aI00
aI00
aI00
aI01
aI01
aI00
aI01
aI00
aI01
aI00
aI01
aa(lp2693
I01
aI00
aI01
aI00
aI01
aI00
aI01
aI01
aI01
aI01
aI01
aI01
aI01
aI00
aI01
aI01
aI01
aI01
aI00
aI01
aI01
aI00
aI01
aI00
aI01
aI00
aI01
aa(lp2694
I01
aI00
aI01
aI01
aI01
aI00
aI00
aI00
aI00
aI00
aI00
aI00
aI00
aI00
aI00
aI00
aI00
aI00
aI00
aI00
aI00
aI00
aI00
aI00
aI01
aI00
aI01
aa(lp2695
I01
aI00
aI01
aI01
aI01
aI00
aI01
aI01
aI01
aI01
aI01
aI00
aI01
aI00
aI01
aI01
aI01
aI01
aI01
aI01
aI00
aI00
aI01
aI00
aI01
aI00
aI01
aa(lp2696
I01
aI00
aI00
aI00
aI01
aI00
aI00
aI00
aI00
aI00
aI00
aI00
aI01
aI00
aI01
aI00
aI00
aI00
aI00
aI00
aI00
aI00
aI01
aI00
aI01
aI00
aI01
aa(lp2697
I01
aI00
aI01
aI00
aI01
aI00
aI01
aI01
aI00
aI01
aI01
aI01
aI01
aI00
aI01
aI01
aI01
aI01
aI01
aI01
aI00
aI00
aI01
aI00
aI01
aI00
aI01
aa(lp2698
I01
aI00
aI01
aI00
aI01
aI00
aI00
aI01
aI00
aI00
aI01
aI00
aI00
aI00
aI00
aI00
aI00
aI00
aI00
aI00
aI00
aI00
aI00
aI00
aI01
aI00
aI01
aa(lp2699
I01
aI00
aI01
aI00
aI01
aI01
aI00
aI01
aI01
aI00
aI01
aI00
aI00
aI00
aI00
aI01
aI01
aI01
aI00
aI01
aI01
aI01
aI01
aI01
aI01
aI00
aI01
aa(lp2700
I01
aI00
aI00
aI00
aI00
aI00
aI00
aI00
aI00
aI00
aI00
aI00
aI00
aI00
aI00
aI01
aI00
aI00
aI00
aI00
aI00
aI00
aI00
aI00
aI00
aI00
aI01
aa(lp2701
I01
aI01
aI01
aI01
aI01
aI01
aI01
aI01
aI01
aI01
aI01
aI01
aI01
aI01
aI01
aI01
aI01
aI01
aI01
aI01
aI01
aI01
aI01
aI01
aI01
aI01
aI01
aasg54
I27
sbsg91
(lp2702
S'%%%%%%%%%%%%%%%%%%%%%%'
p2703
aS'%.                  4%'
p2704
aS'%.%%% %%%%%%%%%%%%%% %'
p2705
aS'%.....%%..         % %'
p2706
aS'% %%%%%%%%%%%% %%% % %'
p2707
aS'% %       %  . . . % %'
p2708
aS'%1  % % %   %%. . .% %'
p2709
aS'% %%% % %%%%%%.% %.% %'
p2710
aS'%.%...% %.  ...% %.  %'
p2711
aS'%...%.% %.%%.%.% %.% %'
p2712
aS'%.%%%.% %.% .%.% %.% %'
p2713
aS'%...%...%.  .%.% %.%%%'
p2714
aS'%...%%%.%.%%.%.%%%...%'
p2715
aS'%.......  %%  .......%'
p2716
aS'%...%%%.%.%%.%.%%%...%'
p2717
aS'%%%.% %.%.  .%...%...%'
p2718
aS'% %.% %.%. %.% %.%%%.%'
p2719
aS'% %.% %.%.%%.% %.%...%'
p2720
aS'%  .% %...  .% %...%.%'
p2721
aS'% %.% %.%%%%%% % %%% %'
p2722
aS'% %. . .%%   % % %  2%'
p2723
aS'% % . . .  %       % %'
p2724
aS'% % %%% %%%%%%%%%%%% %'
p2725
aS'% %         ..%%.....%'
p2726
aS'% %%%%%%%%%%%%%% %%%.%'
p2727
aS'%3                  .%'
p2728
aS'%%%%%%%%%%%%%%%%%%%%%%'
p2729
asbsg26
(lp2730
(lp2731
NaNaNaNaNaNaNaNaNaNaNaNaNaNaNaNaNaNaNaNaNaNaNaNaNaNaNaa(lp2732
NaNaNaNaNaNaNaNaNaNaNaNaI1238
aI1239
aI1240
aI1241
aI1242
aI1243
aI1244
aNaNaNaNaI1245
aI1246
aI1247
aNaa(lp2733
NaNaNaNaNaNaNaNaNaNaNaNaI1248
aI1249
aI1250
aI1251
aNaI1252
aNaNaNaNaNaI1253
aNaNaNaa(lp2734
NaNaNaNaNaNaI1254
aI1255
aI1256
aI1257
aI1258
aI1259
aI1260
aI1261
aI1262
aI1263
aNaI1264
aI1265
aNaNaNaNaI1266
aNaNaNaa(lp2735
NaNaNaNaNaI1267
aNaNaNaNaNaNaNaI1268
aNaNaNaNaI1269
aNaNaNaNaI1270
aNaNaNaa(lp2736
NaNaNaNaNaNaI1271
aNaNaNaNaNaNaI1272
aNaI1273
aI1274
aI1275
aI1276
aNaNaNaNaI1277
aNaNaNaa(lp2737
NaNaNaNaNaI1278
aNaNaNaNaNaNaNaI1279
aNaI1280
aNaNaNaNaNaNaNaNaNaNaNaa(lp2738
NaNaNaNaNaNaI1281
aI1282
aI1283
aI1284
aI1285
aI1286
aI1287
aI1288
aI1289
aI1290
aNaNaNaNaNaNaNaNaNaNaNaa(lp2739
NaNaNaNaNaI1291
aNaNaI1292
aNaNaNaNaNaNaNaNaNaNaNaNaNaNaI1293
aNaNaNaa(lp2740
NaNaNaNaNaNaNaNaI1294
aI1295
aI1296
aI1297
aI1298
aNaI1299
aI1300
aI1301
aI1302
aI1303
aNaNaNaNaI1304
aNaNaNaa(lp2741
NaNaNaNaNaNaNaNaNaNaNaNaNaNaNaNaNaNaNaNaNaNaNaNaNaNaNaa(lp2742
NaNaNaNaNaNaNaNaNaNaNaNaNaNaNaNaNaNaNaNaNaNaNaNaNaNaNaa(lp2743
NaNaNaI1305
aNaNaNaNaI1306
aI1307
aI1308
aI1309
aI1310
aNaI1311
aI1312
aI1313
aI1314
aI1315
aNaNaNaNaNaNaNaNaa(lp2744
NaNaNaI1316
aNaNaNaNaNaNaNaNaNaNaNaNaNaNaI1317
aNaNaI1318
aNaNaNaNaNaa(lp2745
NaNaNaNaNaNaNaNaNaNaNaI1319
aI1320
aI1321
aI1322
aI1323
aI1324
aI1325
aI1326
aI1327
aI1328
aNaNaNaNaNaNaa(lp2746
NaNaNaNaNaNaNaNaNaNaNaI1329
aNaI1330
aNaNaNaNaNaNaNaI1331
aNaNaNaNaNaa(lp2747
NaNaNaI1332
aNaNaNaNaI1333
aI1334
aI1335
aI1336
aNaI1337
aNaNaNaNaNaNaI1338
aNaNaNaNaNaNaa(lp2748
NaNaNaI1339
aNaNaNaNaI1340
aNaNaNaNaI1341
aNaNaNaNaNaNaNaI1342
aNaNaNaNaNaa(lp2749
NaNaNaI1343
aNaNaNaNaI1344
aI1345
aNaI1346
aI1347
aI1348
aI1349
aI1350
aI1351
aI1352
aI1353
aI1354
aI1355
aNaNaNaNaNaNaa(lp2750
NaNaNaI1356
aNaNaNaNaNaI1357
aNaI1358
aI1359
aI1360
aI1361
aNaNaNaNaNaNaNaNaNaNaNaNaa(lp2751
NaI1362
aI1363
aI1364
aNaNaNaNaI1365
aI1366
aI1367
aI1368
aI1369
aI1370
aI1371
aNaNaNaNaNaNaNaNaNaNaNaNaa(lp2752
NaNaNaNaNaNaNaNaNaNaNaNaNaNaNaNaNaNaNaNaNaNaNaNaNaNaNaasS'have_window'
p2753
I0
sS'currentGhostImages'
p2754
(dp2755
sS'zoom'
p2756
F1
sS'agentImages'
p2757
(lp2758
((igame
AgentState
(dp2759
g150
(igame
Configuration
p2760
(dp2761
g153
g154
sg155
g2669
sbsg156
(igame
Configuration
p2762
(dp2763
g153
S'East'
p2764
sg155
(F2
F20
tp2765
sbsg161
I00
sg162
I0
sb(lp2766
I1372
aI1373
aI1374
aI1375
aI1376
atp2767
a((igame
AgentState
(dp2768
g150
(igame
Configuration
p2769
(dp2770
g153
g154
sg155
g2671
sbsg156
g2769
sg161
I00
sg162
I0
sb(lp2771
I1377
aI1378
aI1379
aI1380
aI1381
atp2772
a((igame
AgentState
(dp2773
g150
(igame
Configuration
p2774
(dp2775
g153
g154
sg155
g2673
sbsg156
g2774
sg161
I00
sg162
I0
sb(lp2776
I1382
aI1383
aI1384
aI1385
aI1386
atp2777
a((igame
AgentState
(dp2778
g150
(igame
Configuration
p2779
(dp2780
g153
g154
sg155
g2675
sbsg156
g2779
sg161
I00
sg162
I0
sb(lp2781
I1387
aI1388
aI1389
aI1390
aI1391
atp2782
asg54
I27
sg30
I22
sS'currentState'
p2783
g2640
sg23
(dp2784
sS'isBlue'
p2785
I00
sS'infoPane'
p2786
(igraphicsDisplay
InfoPane
p2787
(dp2788
g2639
F30
sg54
I35
sg30
F660
sS'base'
p2789
F840
sS'fontSize'
p2790
I24
sS'scoreText'
p2791
I1
sS'textColor'
p2792
S'#ffff3d'
p2793
sbsbsb.