(igame
Game
p1
(dp2
S'numMoves'
p3
I0
sS'rules'
p4
(icapture
CaptureRules
p5
(dp6
bsS'length'
p7
I3000
sS'state'
p8
(icapture
GameState
p9
(dp10
S'teams'
p11
(lp12
I01
aI00
aI01
aI00
asS'agentDistances'
p13
(lp14
sS'data'
p15
(igame
GameStateData
p16
(dp17
S'_foodEaten'
p18
(I13
I3
tp19
sS'layout'
p20
(ilayout
Layout
p21
(dp22
S'capsules'
p23
(lp24
sS'numGhosts'
p25
I4
sS'food'
p26
(igame
Grid
p27
(dp28
S'CELLS_PER_INT'
p29
I30
sS'width'
p30
I22
sg15
(lp31
(lp32
I00
aI00
aI00
aI00
aI00
aI00
aI00
aI00
aI00
aI00
aI00
aI00
aI00
aI00
aI00
aI00
aI00
aI00
aI00
aI00
aI00
aI00
aI00
aI00
aI00
aI00
aI00
aa(lp33
I00
aI00
aI00
aI00
aI00
aI00
aI00
aI00
aI00
aI00
aI00
aI00
aI01
aI01
aI01
aI01
aI01
aI01
aI01
aI00
aI00
aI00
aI00
aI01
aI01
aI01
aI00
aa(lp34
I00
aI00
aI00
aI00
aI00
aI00
aI00
aI00
aI00
aI00
aI00
aI00
aI01
aI01
aI01
aI01
aI00
aI01
aI00
aI00
aI00
aI00
aI00
aI01
aI00
aI00
aI00
aa(lp35
I00
aI00
aI00
aI00
aI00
aI00
aI01
aI01
aI01
aI01
aI01
aI01
aI01
aI01
aI01
aI01
aI00
aI01
aI01
aI00
aI00
aI00
aI00
aI01
aI00
aI00
aI00
aa(lp36
I00
aI00
aI00
aI00
aI00
aI01
aI00
aI00
aI00
aI00
aI00
aI00
aI00
aI01
aI00
aI00
aI00
aI00
aI01
aI00
aI00
aI00
aI00
aI01
aI00
aI00
aI00
aa(lp37
I00
aI00
aI00
aI00
aI00
aI00
aI01
aI00
aI00
aI00
aI00
aI00
aI00
aI01
aI00
aI01
aI01
aI01
aI01
aI00
aI00
aI00
aI00
aI01
aI00
aI00
aI00
aa(lp38
I00
aI00
aI00
aI00
aI00
aI01
aI00
aI00
aI00
aI00
aI00
aI00
aI00
aI01
aI00
aI01
aI00
aI00
aI00
aI00
aI00
aI00
aI00
aI00
aI00
aI00
aI00
aa(lp39
I00
aI00
aI00
aI00
aI00
aI00
aI01
aI01
aI01
aI01
aI01
aI01
aI01
aI01
aI01
aI01
aI00
aI00
aI00
aI00
aI00
aI00
aI00
aI00
aI00
aI00
aI00
aa(lp40
I00
aI00
aI00
aI00
aI00
aI01
aI00
aI00
aI01
aI00
aI00
aI00
aI00
aI00
aI00
aI00
aI00
aI00
aI00
aI00
aI00
aI00
aI00
aI01
aI00
aI00
aI00
aa(lp41
I00
aI00
aI00
aI00
aI00
aI00
aI00
aI00
aI01
aI01
aI01
aI01
aI01
aI00
aI01
aI01
aI01
aI01
aI01
aI00
aI00
aI00
aI00
aI01
aI00
aI00
aI00
aa(lp42
I00
aI00
aI00
aI00
aI00
aI00
aI00
aI00
aI00
aI00
aI00
aI00
aI00
aI00
aI00
aI00
aI00
aI00
aI00
aI00
aI00
aI00
aI00
aI00
aI00
aI00
aI00
aa(lp43
I00
aI00
aI00
aI00
aI00
aI00
aI00
aI00
aI00
aI00
aI00
aI00
aI00
aI00
aI00
aI00
aI00
aI00
aI00
aI00
aI00
aI00
aI00
aI00
aI00
aI00
aI00
aa(lp44
I00
aI00
aI00
aI01
aI00
aI00
aI00
aI00
aI01
aI01
aI01
aI01
aI01
aI00
aI01
aI01
aI01
aI01
aI01
aI00
aI00
aI00
aI00
aI00
aI00
aI00
aI00
aa(lp45
I00
aI00
aI00
aI01
aI00
aI00
aI00
aI00
aI00
aI00
aI00
aI00
aI00
aI00
aI00
aI00
aI00
aI00
aI01
aI00
aI00
aI01
aI00
aI00
aI00
aI00
aI00
aa(lp46
I00
aI00
aI00
aI00
aI00
aI00
aI00
aI00
aI00
aI00
aI00
aI01
aI01
aI01
aI01
aI01
aI01
aI01
aI01
aI01
aI01
aI00
aI00
aI00
aI00
aI00
aI00
aa(lp47
I00
aI00
aI00
aI00
aI00
aI00
aI00
aI00
aI00
aI00
aI00
aI01
aI00
aI01
aI00
aI00
aI00
aI00
aI00
aI00
aI00
aI01
aI00
aI00
aI00
aI00
aI00
aa(lp48
I00
aI00
aI00
aI01
aI00
aI00
aI00
aI00
aI01
aI01
aI01
aI01
aI00
aI01
aI00
aI00
aI00
aI00
aI00
aI00
aI01
aI00
aI00
aI00
aI00
aI00
aI00
aa(lp49
I00
aI00
aI00
aI01
aI00
aI00
aI00
aI00
aI01
aI00
aI00
aI00
aI00
aI01
aI00
aI00
aI00
aI00
aI00
aI00
aI00
aI01
aI00
aI00
aI00
aI00
aI00
aa(lp50
I00
aI00
aI00
aI01
aI00
aI00
aI00
aI00
aI01
aI01
aI00
aI01
aI01
aI01
aI01
aI01
aI01
aI01
aI01
aI01
aI01
aI00
aI00
aI00
aI00
aI00
aI00
aa(lp51
I00
aI00
aI00
aI01
aI00
aI00
aI00
aI00
aI00
aI01
aI00
aI01
aI01
aI01
aI01
aI00
aI00
aI00
aI00
aI00
aI00
aI00
aI00
aI00
aI00
aI00
aI00
aa(lp52
I00
aI01
aI01
aI01
aI00
aI00
aI00
aI00
aI01
aI01
aI01
aI01
aI01
aI01
aI01
aI00
aI00
aI00
aI00
aI00
aI00
aI00
aI00
aI00
aI00
aI00
aI00
aa(lp53
I00
aI00
aI00
aI00
aI00
aI00
aI00
aI00
aI00
aI00
aI00
aI00
aI00
aI00
aI00
aI00
aI00
aI00
aI00
aI00
aI00
aI00
aI00
aI00
aI00
aI00
aI00
aasS'height'
p54
I27
sbsS'agentPositions'
p55
(lp56
(I00
(I1
I20
tp57
tp58
a(I00
(I20
I6
tp59
tp60
a(I00
(I1
I1
tp61
tp62
a(I00
(I20
I25
tp63
tp64
asg54
I27
sg30
I22
sS'walls'
p65
(igame
Grid
p66
(dp67
g29
I30
sg30
I22
sg15
(lp68
(lp69
I01
aI01
aI01
aI01
aI01
aI01
aI01
aI01
aI01
aI01
aI01
aI01
aI01
aI01
aI01
aI01
aI01
aI01
aI01
aI01
aI01
aI01
aI01
aI01
aI01
aI01
aI01
aa(lp70
I01
aI00
aI00
aI00
aI00
aI00
aI00
aI00
aI00
aI00
aI00
aI01
aI00
aI00
aI00
aI00
aI00
aI00
aI00
aI00
aI00
aI00
aI00
aI00
aI00
aI00
aI01
aa(lp71
I01
aI00
aI01
aI01
aI01
aI01
aI01
aI01
aI00
aI01
aI01
aI01
aI00
aI00
aI00
aI00
aI01
aI00
aI01
aI01
aI00
aI01
aI01
aI00
aI01
aI00
aI01
aa(lp72
I01
aI00
aI01
aI00
aI00
aI00
aI00
aI00
aI00
aI00
aI00
aI00
aI00
aI00
aI00
aI00
aI01
aI00
aI00
aI01
aI00
aI00
aI01
aI00
aI01
aI00
aI01
aa(lp73
I01
aI00
aI01
aI00
aI01
aI00
aI00
aI01
aI01
aI01
aI01
aI01
aI01
aI00
aI01
aI01
aI01
aI01
aI00
aI01
aI01
aI00
aI01
aI00
aI01
aI00
aI01
aa(lp74
I01
aI00
aI01
aI00
aI01
aI00
aI00
aI00
aI00
aI00
aI00
aI00
aI01
aI00
aI01
aI00
aI00
aI00
aI00
aI00
aI00
aI00
aI01
aI00
aI00
aI00
aI01
aa(lp75
I01
aI00
aI01
aI00
aI01
aI00
aI00
aI01
aI01
aI01
aI01
aI01
aI01
aI00
aI01
aI00
aI01
aI01
aI01
aI01
aI01
aI00
aI01
aI01
aI01
aI00
aI01
aa(lp76
I01
aI00
aI01
aI00
aI00
aI00
aI00
aI00
aI00
aI00
aI00
aI00
aI00
aI00
aI00
aI00
aI00
aI00
aI00
aI00
aI00
aI00
aI01
aI01
aI01
aI00
aI01
aa(lp77
I01
aI00
aI01
aI00
aI01
aI00
aI01
aI01
aI00
aI01
aI01
aI01
aI01
aI00
aI01
aI01
aI01
aI01
aI01
aI01
aI01
aI00
aI01
aI00
aI01
aI00
aI01
aa(lp78
I01
aI00
aI01
aI00
aI01
aI00
aI01
aI01
aI00
aI00
aI00
aI00
aI00
aI00
aI00
aI00
aI00
aI00
aI00
aI01
aI00
aI00
aI01
aI00
aI01
aI00
aI01
aa(lp79
I01
aI00
aI01
aI00
aI01
aI00
aI00
aI01
aI00
aI01
aI00
aI00
aI01
aI01
aI01
aI00
aI01
aI01
aI00
aI01
aI00
aI01
aI01
aI00
aI01
aI00
aI01
aa(lp80
I01
aI00
aI01
aI00
aI01
aI01
aI00
aI01
aI00
aI01
aI01
aI00
aI01
aI01
aI01
aI00
aI00
aI01
aI00
aI01
aI00
aI00
aI01
aI00
aI01
aI00
aI01
aa(lp81
I01
aI00
aI01
aI00
aI01
aI00
aI00
aI01
aI00
aI00
aI00
aI00
aI00
aI00
aI00
aI00
aI00
aI00
aI00
aI01
aI01
aI00
aI01
aI00
aI01
aI00
aI01
aa(lp82
I01
aI00
aI01
aI00
aI01
aI00
aI01
aI01
aI01
aI01
aI01
aI01
aI01
aI00
aI01
aI01
aI01
aI01
aI00
aI01
aI01
aI00
aI01
aI00
aI01
aI00
aI01
aa(lp83
I01
aI00
aI01
aI01
aI01
aI00
aI00
aI00
aI00
aI00
aI00
aI00
aI00
aI00
aI00
aI00
aI00
aI00
aI00
aI00
aI00
aI00
aI00
aI00
aI01
aI00
aI01
aa(lp84
I01
aI00
aI01
aI01
aI01
aI00
aI01
aI01
aI01
aI01
aI01
aI00
aI01
aI00
aI01
aI01
aI01
aI01
aI01
aI01
aI00
aI00
aI01
aI00
aI01
aI00
aI01
aa(lp85
I01
aI00
aI00
aI00
aI01
aI00
aI00
aI00
aI00
aI00
aI00
aI00
aI01
aI00
aI01
aI00
aI00
aI00
aI00
aI00
aI00
aI00
aI01
aI00
aI01
aI00
aI01
aa(lp86
I01
aI00
aI01
aI00
aI01
aI00
aI01
aI01
aI00
aI01
aI01
aI01
aI01
aI00
aI01
aI01
aI01
aI01
aI01
aI01
aI00
aI00
aI01
aI00
aI01
aI00
aI01
aa(lp87
I01
aI00
aI01
aI00
aI01
aI00
aI00
aI01
aI00
aI00
aI01
aI00
aI00
aI00
aI00
aI00
aI00
aI00
aI00
aI00
aI00
aI00
aI00
aI00
aI01
aI00
aI01
aa(lp88
I01
aI00
aI01
aI00
aI01
aI01
aI00
aI01
aI01
aI00
aI01
aI00
aI00
aI00
aI00
aI01
aI01
aI01
aI00
aI01
aI01
aI01
aI01
aI01
aI01
aI00
aI01
aa(lp89
I01
aI00
aI00
aI00
aI00
aI00
aI00
aI00
aI00
aI00
aI00
aI00
aI00
aI00
aI00
aI01
aI00
aI00
aI00
aI00
aI00
aI00
aI00
aI00
aI00
aI00
aI01
aa(lp90
I01
aI01
aI01
aI01
aI01
aI01
aI01
aI01
aI01
aI01
aI01
aI01
aI01
aI01
aI01
aI01
aI01
aI01
aI01
aI01
aI01
aI01
aI01
aI01
aI01
aI01
aI01
aasg54
I27
sbsS'layoutText'
p91
(lp92
S'%%%%%%%%%%%%%%%%%%%%%%'
p93
aS'%.                  4%'
p94
aS'%.%%% %%%%%%%%%%%%%% %'
p95
aS'%.....%%..         % %'
p96
aS'% %%%%%%%%%%%% %%% % %'
p97
aS'% %       %  . . . % %'
p98
aS'%1  % % %   %%. . .% %'
p99
aS'% %%% % %%%%%%.% %.% %'
p100
aS'%.%...% %.  ...% %.  %'
p101
aS'%...%.% %.%%.%.% %.% %'
p102
aS'%.%%%.% %.% .%.% %.% %'
p103
aS'%...%...%.  .%.% %.%%%'
p104
aS'%...%%%.%.%%.%.%%%...%'
p105
aS'%.......  %%  .......%'
p106
aS'%...%%%.%.%%.%.%%%...%'
p107
aS'%%%.% %.%.  .%...%...%'
p108
aS'% %.% %.%. %.% %.%%%.%'
p109
aS'% %.% %.%.%%.% %.%...%'
p110
aS'%  .% %...  .% %...%.%'
p111
aS'% %.% %.%%%%%% % %%% %'
p112
aS'% %. . .%%   % % %  2%'
p113
aS'% % . . .  %       % %'
p114
aS'% % %%% %%%%%%%%%%%% %'
p115
aS'% %         ..%%.....%'
p116
aS'% %%%%%%%%%%%%%% %%%.%'
p117
aS'%3                  .%'
p118
aS'%%%%%%%%%%%%%%%%%%%%%%'
p119
asbsg26
(igame
Grid
p120
(dp121
g29
I30
sg30
I22
sg15
(lp122
(lp123
I00
aI00
aI00
aI00
aI00
aI00
aI00
aI00
aI00
aI00
aI00
aI00
aI00
aI00
aI00
aI00
aI00
aI00
aI00
aI00
aI00
aI00
aI00
aI00
aI00
aI00
aI00
aa(lp124
I00
aI00
aI00
aI00
aI00
aI00
aI00
aI00
aI00
aI00
aI00
aI00
aI00
aI00
aI00
aI00
aI01
aI00
aI00
aI00
aI00
aI00
aI00
aI00
aI00
aI00
aI00
aa(lp125
I00
aI00
aI00
aI00
aI00
aI00
aI00
aI00
aI00
aI00
aI00
aI00
aI00
aI00
aI00
aI00
aI00
aI00
aI00
aI00
aI00
aI00
aI00
aI00
aI00
aI00
aI00
aa(lp126
I00
aI00
aI00
aI00
aI00
aI00
aI00
aI00
aI00
aI00
aI00
aI00
aI00
aI00
aI00
aI00
aI00
aI00
aI00
aI00
aI00
aI00
aI00
aI00
aI00
aI00
aI00
aa(lp127
I00
aI00
aI00
aI00
aI00
aI00
aI00
aI00
aI00
aI00
aI00
aI00
aI00
aI00
aI00
aI00
aI00
aI00
aI00
aI00
aI00
aI00
aI00
aI00
aI00
aI00
aI00
aa(lp128
I00
aI00
aI00
aI00
aI00
aI00
aI00
aI00
aI00
aI00
aI00
aI00
aI00
aI00
aI00
aI00
aI00
aI00
aI00
aI00
aI00
aI00
aI00
aI00
aI00
aI00
aI00
aa(lp129
I00
aI00
aI00
aI00
aI00
aI00
aI00
aI00
aI00
aI00
aI00
aI00
aI00
aI00
aI00
aI00
aI00
aI00
aI00
aI00
aI00
aI00
aI00
aI00
aI00
aI00
aI00
aa(lp130
I00
aI00
aI00
aI00
aI00
aI00
aI00
aI00
aI00
aI00
aI00
aI00
aI00
aI00
aI00
aI00
aI00
aI00
aI00
aI00
aI00
aI00
aI00
aI00
aI00
aI00
aI00
aa(lp131
I00
aI00
aI00
aI00
aI00
aI00
aI00
aI00
aI00
aI00
aI00
aI00
aI00
aI00
aI00
aI00
aI00
aI00
aI00
aI00
aI00
aI00
aI00
aI00
aI00
aI00
aI00
aa(lp132
I00
aI00
aI00
aI00
aI00
aI00
aI00
aI00
aI00
aI00
aI00
aI00
aI00
aI00
aI00
aI00
aI00
aI00
aI00
aI00
aI00
aI00
aI00
aI00
aI00
aI00
aI00
aa(lp133
I00
aI00
aI00
aI00
aI00
aI00
aI00
aI00
aI00
aI00
aI00
aI00
aI00
aI00
aI00
aI00
aI00
aI00
aI00
aI00
aI00
aI00
aI00
aI00
aI00
aI00
aI00
aa(lp134
I00
aI00
aI00
aI00
aI00
aI00
aI00
aI00
aI00
aI00
aI00
aI00
aI00
aI00
aI00
aI00
aI00
aI00
aI00
aI00
aI00
aI00
aI00
aI00
aI00
aI00
aI00
aa(lp135
I00
aI00
aI00
aI00
aI00
aI00
aI00
aI00
aI00
aI00
aI00
aI00
aI00
aI00
aI00
aI00
aI00
aI00
aI00
aI00
aI00
aI00
aI00
aI00
aI00
aI00
aI00
aa(lp136
I00
aI00
aI00
aI00
aI00
aI00
aI00
aI00
aI00
aI00
aI00
aI00
aI00
aI00
aI00
aI00
aI00
aI00
aI00
aI00
aI00
aI00
aI00
aI00
aI00
aI00
aI00
aa(lp137
I00
aI00
aI00
aI00
aI00
aI00
aI00
aI00
aI00
aI00
aI00
aI00
aI00
aI00
aI00
aI00
aI00
aI00
aI00
aI00
aI00
aI00
aI00
aI00
aI00
aI00
aI00
aa(lp138
I00
aI00
aI00
aI00
aI00
aI00
aI00
aI00
aI00
aI00
aI00
aI00
aI00
aI00
aI00
aI00
aI00
aI00
aI00
aI00
aI00
aI00
aI00
aI00
aI00
aI00
aI00
aa(lp139
I00
aI00
aI00
aI00
aI00
aI00
aI00
aI00
aI00
aI00
aI00
aI00
aI00
aI00
aI00
aI00
aI00
aI00
aI00
aI00
aI00
aI00
aI00
aI00
aI00
aI00
aI00
aa(lp140
I00
aI00
aI00
aI00
aI00
aI00
aI00
aI00
aI00
aI00
aI00
aI00
aI00
aI00
aI00
aI00
aI00
aI00
aI00
aI00
aI00
aI00
aI00
aI00
aI00
aI00
aI00
aa(lp141
I00
aI00
aI00
aI00
aI00
aI00
aI00
aI00
aI00
aI00
aI00
aI00
aI00
aI00
aI00
aI00
aI00
aI00
aI00
aI00
aI00
aI00
aI00
aI00
aI00
aI00
aI00
aa(lp142
I00
aI00
aI00
aI00
aI00
aI00
aI00
aI00
aI00
aI00
aI00
aI00
aI00
aI00
aI00
aI00
aI00
aI00
aI00
aI00
aI00
aI00
aI00
aI00
aI00
aI00
aI00
aa(lp143
I00
aI00
aI00
aI00
aI00
aI00
aI00
aI00
aI00
aI00
aI00
aI00
aI00
aI00
aI00
aI00
aI00
aI00
aI00
aI00
aI00
aI00
aI00
aI00
aI00
aI00
aI00
aa(lp144
I00
aI00
aI00
aI00
aI00
aI00
aI00
aI00
aI00
aI00
aI00
aI00
aI00
aI00
aI00
aI00
aI00
aI00
aI00
aI00
aI00
aI00
aI00
aI00
aI00
aI00
aI00
aasg54
I27
sbsS'scoreChange'
p145
I1
sS'agentStates'
p146
(lp147
(igame
AgentState
p148
(dp149
S'start'
p150
(igame
Configuration
p151
(dp152
S'direction'
p153
S'Stop'
p154
sS'pos'
p155
g57
sbsS'configuration'
p156
(igame
Configuration
p157
(dp158
g153
S'North'
p159
sg155
(F7
F15
tp160
sbsS'isPacman'
p161
I00
sS'scaredTimer'
p162
I0
sba(igame
AgentState
p163
(dp164
g150
(igame
Configuration
p165
(dp166
g153
g154
sg155
g59
sbsg156
(igame
Configuration
p167
(dp168
g153
g159
sg155
(F1
F15
tp169
sbsg161
I01
sg162
I0
sba(igame
AgentState
p170
(dp171
g150
(igame
Configuration
p172
(dp173
g153
g154
sg155
g61
sbsg156
(igame
Configuration
p174
(dp175
g153
S'East'
p176
sg155
(F13
F3
tp177
sbsg161
I01
sg162
I0
sba(igame
AgentState
p178
(dp179
g150
(igame
Configuration
p180
(dp181
g153
g154
sg155
g63
sbsg156
(igame
Configuration
p182
(dp183
g153
S'West'
p184
sg155
(F5.5
F25
tp185
sbsg161
I01
sg162
I0
sbasS'_win'
p186
I01
sS'_eaten'
p187
(lp188
I00
aI00
aI00
aI00
asS'score'
p189
I1
sS'_agentMoved'
p190
I2
sS'_lose'
p191
I00
sg23
(lp192
sS'_capsuleEaten'
p193
NsbsS'redTeam'
p194
(lp195
I0
aI2
asS'blueTeam'
p196
(lp197
I1
aI3
asbsS'agents'
p198
(lp199
I0
aI1
aI2
aI3
asS'moveHistory'
p200
(lp201
(I0
S'South'
tp202
a(I1
S'North'
tp203
a(I2
S'North'
tp204
a(I3
S'West'
tp205
a(I0
S'South'
tp206
a(I1
S'North'
tp207
a(I2
S'North'
tp208
a(I3
S'West'
tp209
a(I0
S'South'
tp210
a(I1
S'North'
tp211
a(I2
S'North'
tp212
a(I3
S'West'
tp213
a(I0
S'East'
tp214
a(I1
S'West'
tp215
a(I2
S'North'
tp216
a(I3
S'West'
tp217
a(I0
S'East'
tp218
a(I1
S'West'
tp219
a(I2
S'North'
tp220
a(I3
S'West'
tp221
a(I0
S'North'
tp222
a(I1
S'South'
tp223
a(I2
S'North'
tp224
a(I3
S'West'
tp225
a(I0
S'East'
tp226
a(I1
S'West'
tp227
a(I2
S'North'
tp228
a(I3
S'West'
tp229
a(I0
S'East'
tp230
a(I1
S'West'
tp231
a(I2
S'East'
tp232
a(I3
S'West'
tp233
a(I0
S'South'
tp234
a(I1
S'South'
tp235
a(I2
S'East'
tp236
a(I3
S'West'
tp237
a(I0
S'South'
tp238
a(I1
S'South'
tp239
a(I2
S'South'
tp240
a(I3
S'West'
tp241
a(I0
S'South'
tp242
a(I1
S'South'
tp243
a(I2
S'South'
tp244
a(I3
S'West'
tp245
a(I0
S'East'
tp246
a(I1
S'West'
tp247
a(I2
S'East'
tp248
a(I3
S'West'
tp249
a(I0
S'East'
tp250
a(I1
S'West'
tp251
a(I2
S'East'
tp252
a(I3
S'West'
tp253
a(I0
S'South'
tp254
a(I1
S'West'
tp255
a(I2
S'East'
tp256
a(I3
S'West'
tp257
a(I0
S'South'
tp258
a(I1
S'West'
tp259
a(I2
S'East'
tp260
a(I3
S'West'
tp261
a(I0
S'East'
tp262
a(I1
S'North'
tp263
a(I2
S'North'
tp264
a(I3
S'West'
tp265
a(I0
S'East'
tp266
a(I1
S'West'
tp267
a(I2
S'North'
tp268
a(I3
S'West'
tp269
a(I0
S'North'
tp270
a(I1
S'West'
tp271
a(I2
S'East'
tp272
a(I3
S'West'
tp273
a(I0
S'North'
tp274
a(I1
S'South'
tp275
a(I2
S'East'
tp276
a(I3
S'West'
tp277
a(I0
S'East'
tp278
a(I1
S'South'
tp279
a(I2
S'East'
tp280
a(I3
S'West'
tp281
a(I0
S'East'
tp282
a(I1
S'West'
tp283
a(I2
S'East'
tp284
a(I3
S'South'
tp285
a(I0
S'West'
tp286
a(I1
S'West'
tp287
a(I2
S'East'
tp288
a(I3
S'South'
tp289
a(I0
S'West'
tp290
a(I1
S'West'
tp291
a(I2
S'East'
tp292
a(I3
S'South'
tp293
a(I0
S'West'
tp294
a(I1
S'West'
tp295
a(I2
S'North'
tp296
a(I3
S'South'
tp297
a(I0
S'South'
tp298
a(I1
S'West'
tp299
a(I2
S'North'
tp300
a(I3
S'West'
tp301
a(I0
S'South'
tp302
a(I1
S'West'
tp303
a(I2
S'North'
tp304
a(I3
S'West'
tp305
a(I0
S'West'
tp306
a(I1
S'North'
tp307
a(I2
S'North'
tp308
a(I3
S'West'
tp309
a(I0
S'West'
tp310
a(I1
S'North'
tp311
a(I2
S'North'
tp312
a(I3
S'West'
tp313
a(I0
S'South'
tp314
a(I1
S'North'
tp315
a(I2
S'North'
tp316
a(I3
S'West'
tp317
a(I0
S'South'
tp318
a(I1
S'North'
tp319
a(I2
S'North'
tp320
a(I3
S'West'
tp321
a(I0
S'South'
tp322
a(I1
S'North'
tp323
a(I2
S'North'
tp324
a(I3
S'West'
tp325
a(I0
S'South'
tp326
a(I1
S'North'
tp327
a(I2
S'North'
tp328
a(I3
S'West'
tp329
a(I0
S'South'
tp330
a(I1
S'Stop'
tp331
a(I2
S'North'
tp332
a(I3
S'North'
tp333
a(I0
S'East'
tp334
a(I1
S'West'
tp335
a(I2
S'North'
tp336
a(I3
S'North'
tp337
a(I0
S'East'
tp338
a(I1
S'West'
tp339
a(I2
S'North'
tp340
a(I3
S'North'
tp341
a(I0
S'North'
tp342
a(I1
S'South'
tp343
a(I2
S'North'
tp344
a(I3
S'North'
tp345
a(I0
S'North'
tp346
a(I1
S'West'
tp347
a(I2
S'North'
tp348
a(I3
S'South'
tp349
a(I0
S'North'
tp350
a(I1
S'West'
tp351
a(I2
S'North'
tp352
a(I3
S'South'
tp353
a(I0
S'North'
tp354
a(I1
S'West'
tp355
a(I2
S'North'
tp356
a(I3
S'South'
tp357
a(I0
S'North'
tp358
a(I1
S'West'
tp359
a(I2
S'North'
tp360
a(I3
S'South'
tp361
a(I0
S'West'
tp362
a(I1
S'West'
tp363
a(I2
S'North'
tp364
a(I3
S'South'
tp365
a(I0
S'West'
tp366
a(I1
S'West'
tp367
a(I2
S'North'
tp368
a(I3
S'South'
tp369
a(I0
S'West'
tp370
a(I1
S'North'
tp371
a(I2
S'North'
tp372
a(I3
S'South'
tp373
a(I0
S'West'
tp374
a(I1
S'West'
tp375
a(I2
S'East'
tp376
a(I3
S'South'
tp377
a(I0
S'West'
tp378
a(I1
S'West'
tp379
a(I2
S'East'
tp380
a(I3
S'South'
tp381
a(I0
S'West'
tp382
a(I1
S'South'
tp383
a(I2
S'East'
tp384
a(I3
S'South'
tp385
a(I0
S'West'
tp386
a(I1
S'South'
tp387
a(I2
S'East'
tp388
a(I3
S'South'
tp389
a(I0
S'North'
tp390
a(I1
S'West'
tp391
a(I2
S'South'
tp392
a(I3
S'South'
tp393
a(I0
S'North'
tp394
a(I1
S'West'
tp395
a(I2
S'South'
tp396
a(I3
S'South'
tp397
a(I0
S'West'
tp398
a(I1
S'West'
tp399
a(I2
S'South'
tp400
a(I3
S'South'
tp401
a(I0
S'North'
tp402
a(I1
S'West'
tp403
a(I2
S'South'
tp404
a(I3
S'South'
tp405
a(I0
S'North'
tp406
a(I1
S'West'
tp407
a(I2
S'South'
tp408
a(I3
S'South'
tp409
a(I0
S'North'
tp410
a(I1
S'West'
tp411
a(I2
S'South'
tp412
a(I3
S'South'
tp413
a(I0
S'North'
tp414
a(I1
S'West'
tp415
a(I2
S'South'
tp416
a(I3
S'South'
tp417
a(I0
S'North'
tp418
a(I1
S'West'
tp419
a(I2
S'South'
tp420
a(I3
S'South'
tp421
a(I0
S'East'
tp422
a(I1
S'North'
tp423
a(I2
S'South'
tp424
a(I3
S'South'
tp425
a(I0
S'East'
tp426
a(I1
S'North'
tp427
a(I2
S'South'
tp428
a(I3
S'South'
tp429
a(I0
S'North'
tp430
a(I1
S'West'
tp431
a(I2
S'South'
tp432
a(I3
S'South'
tp433
a(I0
S'East'
tp434
a(I1
S'West'
tp435
a(I2
S'South'
tp436
a(I3
S'South'
tp437
a(I0
S'East'
tp438
a(I1
S'West'
tp439
a(I2
S'South'
tp440
a(I3
S'West'
tp441
a(I0
S'South'
tp442
a(I1
S'West'
tp443
a(I2
S'South'
tp444
a(I3
S'West'
tp445
a(I0
S'South'
tp446
a(I1
S'West'
tp447
a(I2
S'East'
tp448
a(I3
S'North'
tp449
a(I0
S'South'
tp450
a(I1
S'West'
tp451
a(I2
S'East'
tp452
a(I3
S'North'
tp453
a(I0
S'West'
tp454
a(I1
S'North'
tp455
a(I2
S'East'
tp456
a(I3
S'West'
tp457
a(I0
S'West'
tp458
a(I1
S'North'
tp459
a(I2
S'East'
tp460
a(I3
S'West'
tp461
a(I0
S'South'
tp462
a(I1
S'North'
tp463
a(I2
S'South'
tp464
a(I3
S'West'
tp465
a(I0
S'West'
tp466
a(I1
S'North'
tp467
a(I2
S'South'
tp468
a(I3
S'West'
tp469
a(I0
S'West'
tp470
a(I1
S'North'
tp471
a(I2
S'South'
tp472
a(I3
S'South'
tp473
a(I0
S'South'
tp474
a(I1
S'North'
tp475
a(I2
S'South'
tp476
a(I3
S'South'
tp477
a(I0
S'South'
tp478
a(I1
S'North'
tp479
a(I2
S'South'
tp480
a(I3
S'West'
tp481
a(I0
S'East'
tp482
a(I1
S'North'
tp483
a(I2
S'South'
tp484
a(I3
S'West'
tp485
a(I0
S'East'
tp486
a(I1
S'North'
tp487
a(I2
S'East'
tp488
a(I3
S'West'
tp489
a(I0
S'South'
tp490
a(I1
S'North'
tp491
a(I2
S'East'
tp492
a(I3
S'West'
tp493
a(I0
S'South'
tp494
a(I1
S'North'
tp495
a(I2
S'East'
tp496
a(I3
S'West'
tp497
a(I0
S'South'
tp498
a(I1
S'North'
tp499
a(I2
S'East'
tp500
a(I3
S'West'
tp501
a(I0
S'West'
tp502
a(I1
S'West'
tp503
a(I2
S'West'
tp504
a(I3
S'South'
tp505
a(I0
S'North'
tp506
a(I1
S'West'
tp507
a(I2
S'West'
tp508
a(I3
S'South'
tp509
a(I0
S'East'
tp510
a(I1
S'South'
tp511
a(I2
S'East'
tp512
a(I3
S'South'
tp513
a(I0
S'East'
tp514
a(I1
S'West'
tp515
a(I2
S'East'
tp516
a(I3
S'South'
tp517
a(I0
S'East'
tp518
a(I1
S'West'
tp519
a(I2
S'North'
tp520
a(I3
S'South'
tp521
a(I0
S'East'
tp522
a(I1
S'West'
tp523
a(I2
S'North'
tp524
a(I3
S'South'
tp525
a(I0
S'East'
tp526
a(I1
S'West'
tp527
a(I2
S'East'
tp528
a(I3
S'South'
tp529
a(I0
S'East'
tp530
a(I1
S'West'
tp531
a(I2
S'East'
tp532
a(I3
S'South'
tp533
a(I0
S'East'
tp534
a(I1
S'West'
tp535
a(I2
S'East'
tp536
a(I3
S'South'
tp537
a(I0
S'North'
tp538
a(I1
S'North'
tp539
a(I2
S'East'
tp540
a(I3
S'South'
tp541
a(I0
S'North'
tp542
a(I1
S'West'
tp543
a(I2
S'North'
tp544
a(I3
S'South'
tp545
a(I0
S'North'
tp546
a(I1
S'West'
tp547
a(I2
S'North'
tp548
a(I3
S'South'
tp549
a(I0
S'North'
tp550
a(I1
S'South'
tp551
a(I2
S'North'
tp552
a(I3
S'South'
tp553
a(I0
S'North'
tp554
a(I1
S'South'
tp555
a(I2
S'North'
tp556
a(I3
S'South'
tp557
a(I0
S'East'
tp558
a(I1
S'West'
tp559
a(I2
S'North'
tp560
a(I3
S'South'
tp561
a(I0
S'East'
tp562
a(I1
S'West'
tp563
a(I2
S'North'
tp564
a(I3
S'South'
tp565
a(I0
S'West'
tp566
a(I1
S'West'
tp567
a(I2
S'West'
tp568
a(I3
S'West'
tp569
a(I0
S'West'
tp570
a(I1
S'West'
tp571
a(I2
S'West'
tp572
a(I3
S'West'
tp573
a(I0
S'West'
tp574
a(I1
S'West'
tp575
a(I2
S'South'
tp576
a(I3
S'North'
tp577
a(I0
S'South'
tp578
a(I1
S'West'
tp579
a(I2
S'South'
tp580
a(I3
S'North'
tp581
a(I0
S'South'
tp582
a(I1
S'West'
tp583
a(I2
S'West'
tp584
a(I3
S'West'
tp585
a(I0
S'South'
tp586
a(I1
S'West'
tp587
a(I2
S'West'
tp588
a(I3
S'North'
tp589
a(I0
S'South'
tp590
a(I1
S'West'
tp591
a(I2
S'North'
tp592
a(I3
S'West'
tp593
a(I0
S'South'
tp594
a(I1
S'West'
tp595
a(I2
S'North'
tp596
a(I3
S'West'
tp597
a(I0
S'South'
tp598
a(I1
S'West'
tp599
a(I2
S'North'
tp600
a(I3
S'West'
tp601
a(I0
S'South'
tp602
a(I1
S'West'
tp603
a(I2
S'North'
tp604
a(I3
S'North'
tp605
a(I0
S'South'
tp606
a(I1
S'North'
tp607
a(I2
S'West'
tp608
a(I3
S'North'
tp609
a(I0
S'South'
tp610
a(I1
S'North'
tp611
a(I2
S'West'
tp612
a(I3
S'West'
tp613
a(I0
S'South'
tp614
a(I1
S'East'
tp615
a(I2
S'West'
tp616
a(I3
S'West'
tp617
a(I0
S'West'
tp618
a(I1
S'East'
tp619
a(I2
S'West'
tp620
a(I3
S'West'
tp621
a(I0
S'West'
tp622
a(I1
S'North'
tp623
a(I2
S'West'
tp624
a(I3
S'West'
tp625
a(I0
S'South'
tp626
a(I1
S'North'
tp627
a(I2
S'West'
tp628
a(I3
S'West'
tp629
a(I0
S'South'
tp630
a(I1
S'North'
tp631
a(I2
S'East'
tp632
a(I3
S'West'
tp633
a(I0
S'West'
tp634
a(I1
S'North'
tp635
a(I2
S'East'
tp636
a(I3
S'West'
tp637
a(I0
S'West'
tp638
a(I1
S'North'
tp639
a(I2
S'East'
tp640
a(I3
S'West'
tp641
a(I0
S'North'
tp642
a(I1
S'North'
tp643
a(I2
S'East'
tp644
a(I3
S'East'
tp645
a(I0
S'North'
tp646
a(I1
S'South'
tp647
a(I2
S'East'
tp648
a(I3
S'East'
tp649
a(I0
S'North'
tp650
a(I1
S'West'
tp651
a(I2
S'East'
tp652
a(I3
S'East'
tp653
a(I0
S'North'
tp654
a(I1
S'West'
tp655
a(I2
S'East'
tp656
a(I3
S'East'
tp657
a(I0
S'North'
tp658
a(I1
S'South'
tp659
a(I2
S'East'
tp660
a(I3
S'East'
tp661
a(I0
S'South'
tp662
a(I1
S'West'
tp663
a(I2
S'East'
tp664
a(I3
S'East'
tp665
a(I0
S'South'
tp666
a(I1
S'West'
tp667
a(I2
S'East'
tp668
a(I3
S'East'
tp669
a(I0
S'South'
tp670
a(I1
S'West'
tp671
a(I2
S'North'
tp672
a(I3
S'East'
tp673
a(I0
S'South'
tp674
a(I1
S'West'
tp675
a(I2
S'North'
tp676
a(I3
S'East'
tp677
a(I0
S'South'
tp678
a(I1
S'West'
tp679
a(I2
S'West'
tp680
a(I3
S'South'
tp681
a(I0
S'East'
tp682
a(I1
S'West'
tp683
a(I2
S'West'
tp684
a(I3
S'South'
tp685
a(I0
S'East'
tp686
a(I1
S'North'
tp687
a(I2
S'West'
tp688
a(I3
S'West'
tp689
a(I0
S'North'
tp690
a(I1
S'West'
tp691
a(I2
S'West'
tp692
a(I3
S'West'
tp693
a(I0
S'North'
tp694
a(I1
S'West'
tp695
a(I2
S'North'
tp696
a(I3
S'West'
tp697
a(I0
S'East'
tp698
a(I1
S'South'
tp699
a(I2
S'North'
tp700
a(I3
S'South'
tp701
a(I0
S'East'
tp702
a(I1
S'South'
tp703
a(I2
S'North'
tp704
a(I3
S'West'
tp705
a(I0
S'East'
tp706
a(I1
S'West'
tp707
a(I2
S'North'
tp708
a(I3
S'West'
tp709
a(I0
S'East'
tp710
a(I1
S'West'
tp711
a(I2
S'North'
tp712
a(I3
S'West'
tp713
a(I0
S'West'
tp714
a(I1
S'West'
tp715
a(I2
S'North'
tp716
a(I3
S'North'
tp717
a(I0
S'West'
tp718
a(I1
S'West'
tp719
a(I2
S'North'
tp720
a(I3
S'North'
tp721
a(I0
S'West'
tp722
a(I1
S'East'
tp723
a(I2
S'North'
tp724
a(I3
S'West'
tp725
a(I0
S'West'
tp726
a(I1
S'East'
tp727
a(I2
S'North'
tp728
a(I3
S'West'
tp729
a(I0
S'West'
tp730
a(I1
S'East'
tp731
a(I2
S'North'
tp732
a(I3
S'West'
tp733
a(I0
S'North'
tp734
a(I1
S'East'
tp735
a(I2
S'North'
tp736
a(I3
S'West'
tp737
a(I0
S'North'
tp738
a(I1
S'West'
tp739
a(I2
S'North'
tp740
a(I3
S'West'
tp741
a(I0
S'North'
tp742
a(I1
S'West'
tp743
a(I2
S'North'
tp744
a(I3
S'West'
tp745
a(I0
S'North'
tp746
a(I1
S'West'
tp747
a(I2
S'North'
tp748
a(I3
S'West'
tp749
a(I0
S'North'
tp750
a(I1
S'West'
tp751
a(I2
S'West'
tp752
a(I3
S'West'
tp753
a(I0
S'East'
tp754
a(I1
S'West'
tp755
a(I2
S'West'
tp756
a(I3
S'South'
tp757
a(I0
S'East'
tp758
a(I1
S'West'
tp759
a(I2
S'South'
tp760
a(I3
S'South'
tp761
a(I0
S'North'
tp762
a(I1
S'North'
tp763
a(I2
S'South'
tp764
a(I3
S'South'
tp765
a(I0
S'North'
tp766
a(I1
S'North'
tp767
a(I2
S'West'
tp768
a(I3
S'South'
tp769
a(I0
S'East'
tp770
a(I1
S'North'
tp771
a(I2
S'West'
tp772
a(I3
S'South'
tp773
a(I0
S'East'
tp774
a(I1
S'North'
tp775
a(I2
S'North'
tp776
a(I3
S'South'
tp777
a(I0
S'West'
tp778
a(I1
S'North'
tp779
a(I2
S'North'
tp780
a(I3
S'South'
tp781
a(I0
S'West'
tp782
a(I1
S'North'
tp783
a(I2
S'West'
tp784
a(I3
S'South'
tp785
a(I0
S'West'
tp786
a(I1
S'East'
tp787
a(I2
S'West'
tp788
a(I3
S'South'
tp789
a(I0
S'South'
tp790
a(I1
S'East'
tp791
a(I2
S'West'
tp792
a(I3
S'South'
tp793
a(I0
S'South'
tp794
a(I1
S'East'
tp795
a(I2
S'West'
tp796
a(I3
S'South'
tp797
a(I0
S'South'
tp798
a(I1
S'East'
tp799
a(I2
S'South'
tp800
a(I3
S'South'
tp801
a(I0
S'South'
tp802
a(I1
S'North'
tp803
a(I2
S'South'
tp804
a(I3
S'East'
tp805
a(I0
S'South'
tp806
a(I1
S'North'
tp807
a(I2
S'South'
tp808
a(I3
S'East'
tp809
a(I0
S'South'
tp810
a(I1
S'South'
tp811
a(I2
S'South'
tp812
a(I3
S'East'
tp813
a(I0
S'South'
tp814
a(I1
S'West'
tp815
a(I2
S'North'
tp816
a(I3
S'East'
tp817
a(I0
S'West'
tp818
a(I1
S'West'
tp819
a(I2
S'North'
tp820
a(I3
S'South'
tp821
a(I0
S'West'
tp822
a(I1
S'South'
tp823
a(I2
S'North'
tp824
a(I3
S'South'
tp825
a(I0
S'North'
tp826
a(I1
S'West'
tp827
a(I2
S'North'
tp828
a(I3
S'South'
tp829
a(I0
S'North'
tp830
a(I1
S'West'
tp831
a(I2
S'West'
tp832
a(I3
S'South'
tp833
a(I0
S'North'
tp834
a(I1
S'West'
tp835
a(I2
S'West'
tp836
a(I3
S'West'
tp837
a(I0
S'North'
tp838
a(I1
S'West'
tp839
a(I2
S'East'
tp840
a(I3
S'West'
tp841
a(I0
S'North'
tp842
a(I1
S'West'
tp843
a(I2
S'East'
tp844
a(I3
S'West'
tp845
a(I0
S'West'
tp846
a(I1
S'West'
tp847
a(I2
S'East'
tp848
a(I3
S'West'
tp849
a(I0
S'West'
tp850
a(I1
S'North'
tp851
a(I2
S'East'
tp852
a(I3
S'West'
tp853
a(I0
S'West'
tp854
a(I1
S'West'
tp855
a(I2
S'South'
tp856
a(I3
S'South'
tp857
a(I0
S'West'
tp858
a(I1
S'West'
tp859
a(I2
S'South'
tp860
a(I3
S'South'
tp861
a(I0
S'North'
tp862
a(I1
S'South'
tp863
a(I2
S'East'
tp864
a(I3
S'South'
tp865
a(I0
S'North'
tp866
a(I1
S'South'
tp867
a(I2
S'East'
tp868
a(I3
S'South'
tp869
a(I0
S'West'
tp870
a(I1
S'West'
tp871
a(I2
S'Stop'
tp872
a(I3
S'South'
tp873
a(I0
S'South'
tp874
a(I1
S'West'
tp875
a(I2
S'North'
tp876
a(I3
S'South'
tp877
a(I0
S'East'
tp878
a(I1
S'West'
tp879
a(I2
S'North'
tp880
a(I3
S'South'
tp881
a(I0
S'South'
tp882
a(I1
S'West'
tp883
a(I2
S'East'
tp884
a(I3
S'West'
tp885
a(I0
S'East'
tp886
a(I1
S'West'
tp887
a(I2
S'East'
tp888
a(I3
S'West'
tp889
a(I0
S'East'
tp890
a(I1
S'West'
tp891
a(I2
S'West'
tp892
a(I3
S'South'
tp893
a(I0
S'East'
tp894
a(I1
S'North'
tp895
a(I2
S'West'
tp896
a(I3
S'South'
tp897
a(I0
S'East'
tp898
a(I1
S'North'
tp899
a(I2
S'East'
tp900
a(I3
S'South'
tp901
a(I0
S'North'
tp902
a(I1
S'North'
tp903
a(I2
S'East'
tp904
a(I3
S'South'
tp905
a(I0
S'North'
tp906
a(I1
S'North'
tp907
a(I2
S'East'
tp908
a(I3
S'South'
tp909
a(I0
S'North'
tp910
a(I1
S'North'
tp911
a(I2
S'East'
tp912
a(I3
S'West'
tp913
a(I0
S'North'
tp914
a(I1
S'North'
tp915
a(I2
S'South'
tp916
a(I3
S'West'
tp917
a(I0
S'North'
tp918
a(I1
S'North'
tp919
a(I2
S'South'
tp920
a(I3
S'West'
tp921
a(I0
S'North'
tp922
a(I1
S'North'
tp923
a(I2
S'South'
tp924
a(I3
S'West'
tp925
a(I0
S'North'
tp926
a(I1
S'North'
tp927
a(I2
S'South'
tp928
a(I3
S'West'
tp929
a(I0
S'North'
tp930
a(I1
S'North'
tp931
a(I2
S'South'
tp932
a(I3
S'West'
tp933
a(I0
S'East'
tp934
a(I1
S'North'
tp935
a(I2
S'South'
tp936
a(I3
S'South'
tp937
a(I0
S'East'
tp938
a(I1
S'North'
tp939
a(I2
S'South'
tp940
a(I3
S'South'
tp941
a(I0
S'South'
tp942
a(I1
S'North'
tp943
a(I2
S'South'
tp944
a(I3
S'West'
tp945
a(I0
S'East'
tp946
a(I1
S'North'
tp947
a(I2
S'South'
tp948
a(I3
S'West'
tp949
a(I0
S'East'
tp950
a(I1
S'North'
tp951
a(I2
S'South'
tp952
a(I3
S'West'
tp953
a(I0
S'West'
tp954
a(I1
S'North'
tp955
a(I2
S'South'
tp956
a(I3
S'West'
tp957
a(I0
S'West'
tp958
a(I1
S'West'
tp959
a(I2
S'South'
tp960
a(I3
S'North'
tp961
a(I0
S'West'
tp962
a(I1
S'West'
tp963
a(I2
S'South'
tp964
a(I3
S'North'
tp965
a(I0
S'North'
tp966
a(I1
S'West'
tp967
a(I2
S'South'
tp968
a(I3
S'South'
tp969
a(I0
S'West'
tp970
a(I1
S'West'
tp971
a(I2
S'South'
tp972
a(I3
S'South'
tp973
a(I0
S'West'
tp974
a(I1
S'West'
tp975
a(I2
S'South'
tp976
a(I3
S'South'
tp977
a(I0
S'South'
tp978
a(I1
S'West'
tp979
a(I2
S'East'
tp980
a(I3
S'South'
tp981
a(I0
S'South'
tp982
a(I1
S'West'
tp983
a(I2
S'East'
tp984
a(I3
S'North'
tp985
a(I0
S'South'
tp986
a(I1
S'West'
tp987
a(I2
S'East'
tp988
a(I3
S'North'
tp989
a(I0
S'South'
tp990
a(I1
S'North'
tp991
a(I2
S'East'
tp992
a(I3
S'North'
tp993
a(I0
S'South'
tp994
a(I1
S'North'
tp995
a(I2
S'South'
tp996
a(I3
S'North'
tp997
a(I0
S'South'
tp998
a(I1
S'North'
tp999
a(I2
S'South'
tp1000
a(I3
S'South'
tp1001
a(I0
S'South'
tp1002
a(I1
S'North'
tp1003
a(I2
S'South'
tp1004
a(I3
S'South'
tp1005
a(I0
S'South'
tp1006
a(I1
S'West'
tp1007
a(I2
S'South'
tp1008
a(I3
S'East'
tp1009
a(I0
S'East'
tp1010
a(I1
S'West'
tp1011
a(I2
S'South'
tp1012
a(I3
S'East'
tp1013
a(I0
S'East'
tp1014
a(I1
S'West'
tp1015
a(I2
S'South'
tp1016
a(I3
S'South'
tp1017
a(I0
S'South'
tp1018
a(I1
S'West'
tp1019
a(I2
S'South'
tp1020
a(I3
S'South'
tp1021
a(I0
S'South'
tp1022
a(I1
S'South'
tp1023
a(I2
S'South'
tp1024
a(I3
S'Stop'
tp1025
a(I0
S'East'
tp1026
a(I1
S'South'
tp1027
a(I2
S'South'
tp1028
a(I3
S'North'
tp1029
a(I0
S'South'
tp1030
a(I1
S'East'
tp1031
a(I2
S'South'
tp1032
a(I3
S'West'
tp1033
a(I0
S'West'
tp1034
a(I1
S'East'
tp1035
a(I2
S'South'
tp1036
a(I3
S'West'
tp1037
a(I0
S'North'
tp1038
a(I1
S'South'
tp1039
a(I2
S'South'
tp1040
a(I3
S'West'
tp1041
a(I0
S'North'
tp1042
a(I1
S'South'
tp1043
a(I2
S'South'
tp1044
a(I3
S'West'
tp1045
a(I0
S'North'
tp1046
a(I1
S'West'
tp1047
a(I2
S'South'
tp1048
a(I3
S'West'
tp1049
a(I0
S'West'
tp1050
a(I1
S'West'
tp1051
a(I2
S'South'
tp1052
a(I3
S'West'
tp1053
a(I0
S'West'
tp1054
a(I1
S'South'
tp1055
a(I2
S'South'
tp1056
a(I3
S'West'
tp1057
a(I0
S'West'
tp1058
a(I1
S'South'
tp1059
a(I2
S'South'
tp1060
a(I3
S'West'
tp1061
a(I0
S'West'
tp1062
a(I1
S'East'
tp1063
a(I2
S'South'
tp1064
a(I3
S'West'
tp1065
a(I0
S'West'
tp1066
a(I1
S'East'
tp1067
a(I2
S'South'
tp1068
a(I3
S'West'
tp1069
a(I0
S'West'
tp1070
a(I1
S'West'
tp1071
a(I2
S'South'
tp1072
a(I3
S'West'
tp1073
a(I0
S'South'
tp1074
a(I1
S'West'
tp1075
a(I2
S'West'
tp1076
a(I3
S'West'
tp1077
a(I0
S'West'
tp1078
a(I1
S'North'
tp1079
a(I2
S'West'
tp1080
a(I3
S'West'
tp1081
a(I0
S'West'
tp1082
a(I1
S'North'
tp1083
a(I2
S'West'
tp1084
a(I3
S'West'
tp1085
a(I0
S'North'
tp1086
a(I1
S'South'
tp1087
a(I2
S'West'
tp1088
a(I3
S'West'
tp1089
a(I0
S'East'
tp1090
a(I1
S'West'
tp1091
a(I2
S'West'
tp1092
a(I3
S'West'
tp1093
a(I0
S'South'
tp1094
a(I1
S'West'
tp1095
a(I2
S'West'
tp1096
a(I3
S'West'
tp1097
a(I0
S'East'
tp1098
a(I1
S'South'
tp1099
a(I2
S'Stop'
tp1100
a(I3
S'West'
tp1101
a(I0
S'South'
tp1102
a(I1
S'West'
tp1103
a(I2
S'East'
tp1104
a(I3
S'West'
tp1105
a(I0
S'South'
tp1106
a(I1
S'West'
tp1107
a(I2
S'East'
tp1108
a(I3
S'West'
tp1109
a(I0
S'South'
tp1110
a(I1
S'West'
tp1111
a(I2
S'West'
tp1112
a(I3
S'South'
tp1113
a(I0
S'South'
tp1114
a(I1
S'West'
tp1115
a(I2
S'West'
tp1116
a(I3
S'South'
tp1117
a(I0
S'South'
tp1118
a(I1
S'West'
tp1119
a(I2
S'West'
tp1120
a(I3
S'South'
tp1121
a(I0
S'South'
tp1122
a(I1
S'West'
tp1123
a(I2
S'West'
tp1124
a(I3
S'South'
tp1125
a(I0
S'South'
tp1126
a(I1
S'North'
tp1127
a(I2
S'East'
tp1128
a(I3
S'West'
tp1129
a(I0
S'South'
tp1130
a(I1
S'West'
tp1131
a(I2
S'East'
tp1132
a(I3
S'West'
tp1133
a(I0
S'South'
tp1134
a(I1
S'West'
tp1135
a(I2
S'East'
tp1136
a(I3
S'West'
tp1137
a(I0
S'East'
tp1138
a(I1
S'South'
tp1139
a(I2
S'East'
tp1140
a(I3
S'West'
tp1141
a(I0
S'East'
tp1142
a(I1
S'South'
tp1143
a(I2
S'East'
tp1144
a(I3
S'West'
tp1145
a(I0
S'East'
tp1146
a(I1
S'West'
tp1147
a(I2
S'East'
tp1148
a(I3
S'West'
tp1149
a(I0
S'East'
tp1150
a(I1
S'West'
tp1151
a(I2
S'East'
tp1152
a(I3
S'West'
tp1153
a(I0
S'North'
tp1154
a(I1
S'East'
tp1155
a(I2
S'East'
tp1156
a(I3
S'West'
tp1157
a(I0
S'North'
tp1158
a(I1
S'East'
tp1159
a(I2
S'South'
tp1160
a(I3
S'South'
tp1161
a(I0
S'East'
tp1162
a(I1
S'North'
tp1163
a(I2
S'South'
tp1164
a(I3
S'South'
tp1165
a(I0
S'East'
tp1166
a(I1
S'North'
tp1167
a(I2
S'South'
tp1168
a(I3
S'South'
tp1169
a(I0
S'East'
tp1170
a(I1
S'South'
tp1171
a(I2
S'South'
tp1172
a(I3
S'South'
tp1173
a(I0
S'North'
tp1174
a(I1
S'West'
tp1175
a(I2
S'North'
tp1176
a(I3
S'South'
tp1177
a(I0
S'East'
tp1178
a(I1
S'West'
tp1179
a(I2
S'North'
tp1180
a(I3
S'South'
tp1181
a(I0
S'West'
tp1182
a(I1
S'South'
tp1183
a(I2
S'South'
tp1184
a(I3
S'South'
tp1185
a(I0
S'West'
tp1186
a(I1
S'West'
tp1187
a(I2
S'South'
tp1188
a(I3
S'South'
tp1189
a(I0
S'South'
tp1190
a(I1
S'West'
tp1191
a(I2
S'North'
tp1192
a(I3
S'South'
tp1193
a(I0
S'West'
tp1194
a(I1
S'West'
tp1195
a(I2
S'North'
tp1196
a(I3
S'South'
tp1197
a(I0
S'West'
tp1198
a(I1
S'West'
tp1199
a(I2
S'North'
tp1200
a(I3
S'South'
tp1201
a(I0
S'West'
tp1202
a(I1
S'West'
tp1203
a(I2
S'North'
tp1204
a(I3
S'South'
tp1205
a(I0
S'North'
tp1206
a(I1
S'West'
tp1207
a(I2
S'North'
tp1208
a(I3
S'East'
tp1209
a(I0
S'West'
tp1210
a(I1
S'North'
tp1211
a(I2
S'North'
tp1212
a(I3
S'East'
tp1213
a(I0
S'West'
tp1214
a(I1
S'West'
tp1215
a(I2
S'North'
tp1216
a(I3
S'East'
tp1217
a(I0
S'West'
tp1218
a(I1
S'West'
tp1219
a(I2
S'North'
tp1220
a(I3
S'East'
tp1221
a(I0
S'West'
tp1222
a(I1
S'South'
tp1223
a(I2
S'North'
tp1224
a(I3
S'North'
tp1225
a(I0
S'North'
tp1226
a(I1
S'South'
tp1227
a(I2
S'North'
tp1228
a(I3
S'North'
tp1229
a(I0
S'North'
tp1230
a(I1
S'West'
tp1231
a(I2
S'West'
tp1232
a(I3
S'East'
tp1233
a(I0
S'North'
tp1234
a(I1
S'West'
tp1235
a(I2
S'West'
tp1236
a(I3
S'East'
tp1237
a(I0
S'North'
tp1238
a(I1
S'West'
tp1239
a(I2
S'West'
tp1240
a(I3
S'West'
tp1241
a(I0
S'North'
tp1242
a(I1
S'West'
tp1243
a(I2
S'West'
tp1244
a(I3
S'West'
tp1245
a(I0
S'North'
tp1246
a(I1
S'West'
tp1247
a(I2
S'South'
tp1248
a(I3
S'South'
tp1249
a(I0
S'North'
tp1250
a(I1
S'West'
tp1251
a(I2
S'South'
tp1252
a(I3
S'South'
tp1253
a(I0
S'North'
tp1254
a(I1
S'West'
tp1255
a(I2
S'West'
tp1256
a(I3
S'Stop'
tp1257
a(I0
S'North'
tp1258
a(I1
S'West'
tp1259
a(I2
S'West'
tp1260
a(I3
S'North'
tp1261
a(I0
S'West'
tp1262
a(I1
S'West'
tp1263
a(I2
S'West'
tp1264
a(I3
S'North'
tp1265
a(I0
S'West'
tp1266
a(I1
S'West'
tp1267
a(I2
S'West'
tp1268
a(I3
S'East'
tp1269
a(I0
S'North'
tp1270
a(I1
S'North'
tp1271
a(I2
S'West'
tp1272
a(I3
S'East'
tp1273
a(I0
S'North'
tp1274
a(I1
S'North'
tp1275
a(I2
S'West'
tp1276
a(I3
S'East'
tp1277
a(I0
S'East'
tp1278
a(I1
S'West'
tp1279
a(I2
S'West'
tp1280
a(I3
S'East'
tp1281
a(I0
S'East'
tp1282
a(I1
S'West'
tp1283
a(I2
S'West'
tp1284
a(I3
S'South'
tp1285
a(I0
S'North'
tp1286
a(I1
S'West'
tp1287
a(I2
S'West'
tp1288
a(I3
S'South'
tp1289
a(I0
S'East'
tp1290
a(I1
S'West'
tp1291
a(I2
S'West'
tp1292
a(I3
S'South'
tp1293
a(I0
S'East'
tp1294
a(I1
S'North'
tp1295
a(I2
S'West'
tp1296
a(I3
S'South'
tp1297
a(I0
S'South'
tp1298
a(I1
S'North'
tp1299
a(I2
S'West'
tp1300
a(I3
S'North'
tp1301
a(I0
S'South'
tp1302
a(I1
S'North'
tp1303
a(I2
S'North'
tp1304
a(I3
S'West'
tp1305
a(I0
S'South'
tp1306
a(I1
S'North'
tp1307
a(I2
S'North'
tp1308
a(I3
S'West'
tp1309
a(I0
S'East'
tp1310
a(I1
S'North'
tp1311
a(I2
S'West'
tp1312
a(I3
S'West'
tp1313
a(I0
S'East'
tp1314
a(I1
S'North'
tp1315
a(I2
S'West'
tp1316
a(I3
S'West'
tp1317
a(I0
S'South'
tp1318
a(I1
S'North'
tp1319
a(I2
S'West'
tp1320
a(I3
S'West'
tp1321
a(I0
S'South'
tp1322
a(I1
S'North'
tp1323
a(I2
S'West'
tp1324
a(I3
S'West'
tp1325
a(I0
S'East'
tp1326
a(I1
S'North'
tp1327
a(I2
S'South'
tp1328
a(I3
S'West'
tp1329
a(I0
S'East'
tp1330
a(I1
S'North'
tp1331
a(I2
S'West'
tp1332
a(I3
S'West'
tp1333
a(I0
S'South'
tp1334
a(I1
S'North'
tp1335
a(I2
S'West'
tp1336
a(I3
S'West'
tp1337
a(I0
S'South'
tp1338
a(I1
S'North'
tp1339
a(I2
S'West'
tp1340
a(I3
S'West'
tp1341
a(I0
S'South'
tp1342
a(I1
S'West'
tp1343
a(I2
S'South'
tp1344
a(I3
S'West'
tp1345
a(I0
S'East'
tp1346
a(I1
S'West'
tp1347
a(I2
S'South'
tp1348
a(I3
S'West'
tp1349
a(I0
S'North'
tp1350
a(I1
S'West'
tp1351
a(I2
S'East'
tp1352
a(I3
S'West'
tp1353
a(I0
S'West'
tp1354
a(I1
S'West'
tp1355
a(I2
S'East'
tp1356
a(I3
S'West'
tp1357
a(I0
S'North'
tp1358
a(I1
S'North'
tp1359
a(I2
S'East'
tp1360
a(I3
S'West'
tp1361
a(I0
S'North'
tp1362
a(I1
S'North'
tp1363
a(I2
S'East'
tp1364
a(I3
S'West'
tp1365
a(I0
S'West'
tp1366
a(I1
S'North'
tp1367
a(I2
S'East'
tp1368
a(I3
S'West'
tp1369
a(I0
S'West'
tp1370
a(I1
S'North'
tp1371
a(I2
S'East'
tp1372
a(I3
S'West'
tp1373
a(I0
S'North'
tp1374
a(I1
S'North'
tp1375
a(I2
S'East'
tp1376
a(I3
S'West'
tp1377
a(I0
S'North'
tp1378
a(I1
S'North'
tp1379
a(I2
S'East'
tp1380
asS'gameOver'
p1381
I01
sS'display'
p1382
(itextDisplay
NullGraphics
p1383
(dp1384
bsb.
